Archive member included because of file (symbol)

icomlib.a(etimer.o)           ssv6060-main.o (etimer_set)
icomlib.a(printf.o)           ssv6060-main.o (printf)
icomlib.a(process.o)          icomlib.a(etimer.o) (process_post)
icomlib.a(strformat.o)        icomlib.a(printf.o) (format_str_v)
icomlib.a(timer.o)            icomlib.a(etimer.o) (timer_set)
icomlib.a(atcmd_icomm.o)      ssv6060-main.o (At_Disconnect)
icomlib.a(boot-hiflying.o)    /tmp/ccmDjWLP.o (boot_main)
icomlib.a(clock.o)            icomlib.a(etimer.o) (clock_time)
icomlib.a(contiki-main.o)     icomlib.a(boot-hiflying.o) (main)
icomlib.a(debug-uart.o)       icomlib.a(printf.o) (dbg_send_bytes)
icomlib.a(gpio_api.o)         ssv6060-main.o (pinMode)
icomlib.a(drv_timer.o)        icomlib.a(clock.o) (hwtmr_start)
icomlib.a(drv_uart.o)         icomlib.a(debug-uart.o) (drv_uart_tx)
icomlib.a(hw_init.o)          icomlib.a(drv_uart.o) (ssv_delay)
icomlib.a(hw_regs_api.o)      icomlib.a(hw_init.o) (hw_reg_write)
icomlib.a(ssv_lib.o)          icomlib.a(printf.o) (strlen)
icomlib.a(ssv_lib_slow.o)     icomlib.a(atcmd_icomm.o) (dbg_dump_binary)
icomlib.a(swpwm.o)            icomlib.a(clock.o) (initSwPWM)
icomlib.a(systemconf.o)       icomlib.a(atcmd_icomm.o) (gwifistatus)
icomlib.a(wdog_api.o)         ssv6060-main.o (api_wdog_reboot)
icomlib.a(xmem.o)             icomlib.a(contiki-main.o) (cabrio_flash_init)
icomlib.a(bsp.o)              icomlib.a(hw_init.o) (set_mrx_filter_sta)
icomlib.a(crypthw.o)          icomlib.a(hw_init.o) (g_soc_table)
icomlib.a(dbg-atcmd-api.o)    icomlib.a(hw_init.o) (UpdateConf)
icomlib.a(drv_mac.o)          icomlib.a(dbg-atcmd-api.o) (SET_STA_MAC)
icomlib.a(drv_phy.o)          icomlib.a(hw_init.o) (drv_phy_init)
icomlib.a(drv_pktbuf.o)       icomlib.a(dbg-atcmd-api.o) (setpacketbuf_len)
icomlib.a(drv_pktbuf_slow)    icomlib.a(atcmd_icomm.o) (ssv6xxx_pbuf_dump_reg)
icomlib.a(hash_alg.o)         icomlib.a(atcmd_icomm.o) (pbkdf2_sha1)
icomlib.a(hmac_md5.o)         icomlib.a(hash_alg.o) (hmac_md5_init)
icomlib.a(hmac_sha1.o)        icomlib.a(hash_alg.o) (hmac_sha1_init)
icomlib.a(ieee80211_mgmt.)    icomlib.a(atcmd_icomm.o) (getAvailableIndex)
icomlib.a(ieee80211_rdc.o)    icomlib.a(dbg-atcmd-api.o) (ieee80211_rdc)
icomlib.a(irq.o)              icomlib.a(wdog_api.o) (irq_mask_disable)
icomlib.a(netstack.o)         icomlib.a(contiki-main.o) (netstack_init)
icomlib.a(powersave.o)        icomlib.a(ieee80211_mgmt.) (is_waketime_alive)
icomlib.a(rate_control.o)     icomlib.a(ieee80211_mgmt.) (init_ratecontrol)
icomlib.a(sha1.o)             icomlib.a(hmac_sha1.o) (sha1hw_init)
icomlib.a(soft_ap.o)          icomlib.a(bsp.o) (softap_get_sta_connected)
icomlib.a(ssv6200_rx.o)       icomlib.a(powersave.o) (is_tx_active)
icomlib.a(ssvradio.o)         icomlib.a(ssv6200_rx.o) (ssv6200_radio_retrans)
icomlib.a(wpa.o)              icomlib.a(ieee80211_mgmt.) (init_wpa_ctx)
icomlib.a(sys_status_api.)    icomlib.a(atcmd_icomm.o) (get_local_mac)
icomlib.a(AES_decrypt.o)      icomlib.a(wpa.o) (aes_wrap)
icomlib.a(arc4.o)             icomlib.a(wpa.o) (arc4_skip)
icomlib.a(md5.o)              icomlib.a(hmac_md5.o) (MD5Init)
icomlib.a(wep.o)              icomlib.a(ieee80211_mgmt.) (getAuthChallengeTextLen)
icomlib.a(autostart.o)        icomlib.a(contiki-main.o) (autostart_start)
icomlib.a(shell-ping.o)       icomlib.a(atcmd_icomm.o) (ping_start)
icomlib.a(random.o)           icomlib.a(clock.o) (random_init)
icomlib.a(airkiss.o)          icomlib.a(ieee80211_mgmt.) (clearAirKissBuf)
icomlib.a(bsp_info.o)         icomlib.a(contiki-main.o) (bsp_get_boot_info)
icomlib.a(cfs-coffee.o)       icomlib.a(systemconf.o) (cfs_open)
icomlib.a(console.o)          icomlib.a(contiki-main.o) (console_init)
icomlib.a(drv_flash.o)        icomlib.a(systemconf.o) (drv_flash_get_cache_addr)
icomlib.a(drv_gpio.o)         icomlib.a(swpwm.o) (get_PAD_Addr)
icomlib.a(drv_pmu.o)          icomlib.a(powersave.o) (drv_pmu_powersave_mode)
icomlib.a(drv_wdog.o)         icomlib.a(wdog_api.o) (drv_wdog_reboot)
icomlib.a(fence.o)            icomlib.a(bsp.o) (fence_init)
icomlib.a(flash_api.o)        icomlib.a(systemconf.o) (spi_flash_sector_erase)
icomlib.a(smartComm.o)        icomlib.a(sys_status_api.) (set_slink_ready_ack)
icomlib.a(smartConf.o)        icomlib.a(ieee80211_mgmt.) (clearSmartLinkBuf)
icomlib.a(userSmart.o)        icomlib.a(ssv6200_rx.o) (rx_process_userSmart)
icomlib.a(ieee80211_mac.o)    icomlib.a(ieee80211_mgmt.) (rx_skb)
icomlib.a(ieee80211_net.o)    icomlib.a(netstack.o) (ieee80211_net)
icomlib.a(ssv6200_tx.o)       icomlib.a(ssvradio.o) (ssv6200_transmit)
icomlib.a(drv_fence.o)        icomlib.a(fence.o) (hwfence_init)
icomlib.a(drv_mbox.o)         icomlib.a(ssv6200_tx.o) (drv_mailbox_cpu_ff)
icomlib.a(EAPOL.o)            icomlib.a(ieee80211_net.o) (rx_process_eapol)
icomapps.a(atcmd.o)           icomlib.a(atcmd_icomm.o) (At_ParserInd)
icomapps.a(socket_app.o)      icomlib.a(smartComm.o) (setRemoteMAC)
icomapps.a(soft_ap_init.o)    icomlib.a(soft_ap.o) (g_softap_config)
icomapps.a(tcp_server_demo)   ssv6060-main.o (tcpServerDemo_process)
icomapps.a(wifi_uart_demo.)   ssv6060-main.o (wifiUartDemo_process)
icomapps.a(ota_api.o)         icomapps.a(socket_app.o) (setOtaRrmoteIp)
icomlib.a(pwm_api.o)          icomapps.a(tcp_server_demo) (enableHwPWM)
icomlib.a(serial_api.o)       icomapps.a(wifi_uart_demo.) (SerialInit)
icomlib.a(drv_pwm.o)          icomlib.a(pwm_api.o) (drv_pwm_setduty)
contikilib.a(dhcp_process.o)  icomlib.a(ieee80211_mgmt.) (dhcp_configure)
contikilib.a(dhcps.o)         icomlib.a(soft_ap.o) (dhcp_dump_info)
contikilib.a(resolv.o)        ssv6060-main.o (resolv_event_found)
contikilib.a(simple-udp.o)    icomlib.a(smartComm.o) (simple_udp_sendto)
contikilib.a(socket_driver.o)
                              icomapps.a(atcmd.o) (set_tcp_timeout)
contikilib.a(tcpip.o)         icomlib.a(shell-ping.o) (tcpip_output)
contikilib.a(uip_arp.o)       icomlib.a(atcmd_icomm.o) (uip_arp_print)
contikilib.a(uip.o)           icomlib.a(wpa.o) (uip_aligned_buf)
contikilib.a(uiplib.o)        icomapps.a(atcmd.o) (uiplib_ip4addrconv)
contikilib.a(uip-udp-packet.)
                              contikilib.a(resolv.o) (uip_udp_packet_sendto)
contikilib.a(ntp_client.o)    icomlib.a(ieee80211_mgmt.) (ntp_client_Process)
contikilib.a(dhcpc.o)         contikilib.a(dhcp_process.o) (dhcpc_init)
accloud.a(zc_common.o)        ssv6060-main.o (ZC_Rand)
accloud.a(zc_configuratio)    accloud.a(zc_common.o) (g_struZcConfigDb)
accloud.a(zc_message_queu)    ssv6060-main.o (MSG_RecvDataFromCloud)
accloud.a(zc_protocol_con)    ssv6060-main.o (g_struProtocolController)
accloud.a(zc_sec_engine.o)    accloud.a(zc_protocol_con) (SEC_PaddingCheck)
accloud.a(zc_timer.o)         accloud.a(zc_protocol_con) (TIMER_Init)
accloud.a(zc_hf_adpter.o)     ssv6060-main.o (HF_TimerExpired)
accloud.a(ac_api.o)           accloud.a(zc_hf_adpter.o) (AC_RecvMessage)
accloud.a(ac_hal.o)           accloud.a(ac_api.o) (AC_DealNotifyMessage)
accloud.a(aes_cbc.o)          accloud.a(zc_sec_engine.o) (AES_CBC_Encrypt)
accloud.a(aes_core.o)         accloud.a(aes_cbc.o) (AES_set_encrypt_key)
accloud.a(crc.o)              accloud.a(zc_configuratio) (crc16_ccitt)
accloud.a(bignum.o)           accloud.a(zc_sec_engine.o) (mpi_read_binary)
accloud.a(rsa.o)              accloud.a(zc_sec_engine.o) (rsa_init)
accloud.a(zc_client_manag)    accloud.a(zc_protocol_con) (ZC_ClientInit)
accloud.a(zc_cloud_event.)    accloud.a(zc_protocol_con) (EVENT_BuildEmptyMsg)
accloud.a(zc_moudle_manag)    accloud.a(ac_api.o) (ZC_RecvDataFromMoudle)
./thirdPartyLib/libairkiss.a(airkiss.o)
                              icomlib.a(airkiss.o) (airkiss_version)
/usr/bin/../lib/gcc/arm-none-eabi/4.8.4/libgcc.a(_udivsi3.o)
                              icomlib.a(printf.o) (__aeabi_uidiv)
/usr/bin/../lib/gcc/arm-none-eabi/4.8.4/libgcc.a(_divsi3.o)
                              icomlib.a(dbg-atcmd-api.o) (__aeabi_idiv)
/usr/bin/../lib/gcc/arm-none-eabi/4.8.4/libgcc.a(_dvmd_tls.o)
                              /usr/bin/../lib/gcc/arm-none-eabi/4.8.4/libgcc.a(_udivsi3.o) (__aeabi_idiv0)
/usr/bin/../lib/gcc/arm-none-eabi/4.8.4/libgcc.a(_aeabi_uldivmod.o)
                              icomlib.a(strformat.o) (__aeabi_uldivmod)
/usr/bin/../lib/gcc/arm-none-eabi/4.8.4/libgcc.a(bpabi.o)
                              /usr/bin/../lib/gcc/arm-none-eabi/4.8.4/libgcc.a(_aeabi_uldivmod.o) (__gnu_uldivmod_helper)
/usr/bin/../lib/gcc/arm-none-eabi/4.8.4/libgcc.a(_divdi3.o)
                              /usr/bin/../lib/gcc/arm-none-eabi/4.8.4/libgcc.a(bpabi.o) (__divdi3)
/usr/bin/../lib/gcc/arm-none-eabi/4.8.4/libgcc.a(_udivdi3.o)
                              /usr/bin/../lib/gcc/arm-none-eabi/4.8.4/libgcc.a(bpabi.o) (__udivdi3)
/usr/bin/../lib/gcc/arm-none-eabi/4.8.4/libgcc.a(_clzsi2.o)
                              /usr/bin/../lib/gcc/arm-none-eabi/4.8.4/libgcc.a(_divdi3.o) (__clzsi2)
/usr/bin/../lib/gcc/arm-none-eabi/4.8.4/../../../../arm-none-eabi/lib/libg_s.a(lib_a-atoi.o)
                              icomlib.a(atcmd_icomm.o) (atoi)
/usr/bin/../lib/gcc/arm-none-eabi/4.8.4/../../../../arm-none-eabi/lib/libg_s.a(lib_a-errno.o)
                              icomlib.a(ssv_lib.o) (__errno)
/usr/bin/../lib/gcc/arm-none-eabi/4.8.4/../../../../arm-none-eabi/lib/libg_s.a(lib_a-impure.o)
                              /usr/bin/../lib/gcc/arm-none-eabi/4.8.4/../../../../arm-none-eabi/lib/libg_s.a(lib_a-errno.o) (_impure_ptr)
/usr/bin/../lib/gcc/arm-none-eabi/4.8.4/../../../../arm-none-eabi/lib/libg_s.a(lib_a-malloc.o)
                              ssv6060-main.o (malloc)
/usr/bin/../lib/gcc/arm-none-eabi/4.8.4/../../../../arm-none-eabi/lib/libg_s.a(lib_a-memmove.o)
                              icomlib.a(AES_decrypt.o) (memmove)
/usr/bin/../lib/gcc/arm-none-eabi/4.8.4/../../../../arm-none-eabi/lib/libg_s.a(lib_a-nano-freer.o)
                              /usr/bin/../lib/gcc/arm-none-eabi/4.8.4/../../../../arm-none-eabi/lib/libg_s.a(lib_a-malloc.o) (_free_r)
/usr/bin/../lib/gcc/arm-none-eabi/4.8.4/../../../../arm-none-eabi/lib/libg_s.a(lib_a-nano-mallocr.o)
                              /usr/bin/../lib/gcc/arm-none-eabi/4.8.4/../../../../arm-none-eabi/lib/libg_s.a(lib_a-malloc.o) (_malloc_r)
/usr/bin/../lib/gcc/arm-none-eabi/4.8.4/../../../../arm-none-eabi/lib/libg_s.a(lib_a-rand.o)
                              icomlib.a(random.o) (srand)
/usr/bin/../lib/gcc/arm-none-eabi/4.8.4/../../../../arm-none-eabi/lib/libg_s.a(lib_a-sbrkr.o)
                              /usr/bin/../lib/gcc/arm-none-eabi/4.8.4/../../../../arm-none-eabi/lib/libg_s.a(lib_a-nano-mallocr.o) (_sbrk_r)
/usr/bin/../lib/gcc/arm-none-eabi/4.8.4/../../../../arm-none-eabi/lib/libg_s.a(lib_a-strcasecmp.o)
                              contikilib.a(resolv.o) (strcasecmp)
/usr/bin/../lib/gcc/arm-none-eabi/4.8.4/../../../../arm-none-eabi/lib/libg_s.a(lib_a-strcpy.o)
                              icomlib.a(atcmd_icomm.o) (strcpy)
/usr/bin/../lib/gcc/arm-none-eabi/4.8.4/../../../../arm-none-eabi/lib/libg_s.a(lib_a-strncmp.o)
                              icomlib.a(atcmd_icomm.o) (strncmp)
/usr/bin/../lib/gcc/arm-none-eabi/4.8.4/../../../../arm-none-eabi/lib/libg_s.a(lib_a-strtol.o)
                              /usr/bin/../lib/gcc/arm-none-eabi/4.8.4/../../../../arm-none-eabi/lib/libg_s.a(lib_a-atoi.o) (_strtol_r)
/usr/bin/../lib/gcc/arm-none-eabi/4.8.4/../../../../arm-none-eabi/lib/libg_s.a(lib_a-strtoul.o)
                              icomlib.a(atcmd_icomm.o) (strtoul)
/usr/bin/../lib/gcc/arm-none-eabi/4.8.4/../../../../arm-none-eabi/lib/libg_s.a(lib_a-vsnprintf.o)
                              accloud.a(zc_hf_adpter.o) (vsnprintf)
/usr/bin/../lib/gcc/arm-none-eabi/4.8.4/../../../../arm-none-eabi/lib/libg_s.a(lib_a-ctype_.o)
                              /usr/bin/../lib/gcc/arm-none-eabi/4.8.4/../../../../arm-none-eabi/lib/libg_s.a(lib_a-strcasecmp.o) (__ctype_ptr__)
/usr/bin/../lib/gcc/arm-none-eabi/4.8.4/../../../../arm-none-eabi/lib/libg_s.a(lib_a-reent.o)
                              /usr/bin/../lib/gcc/arm-none-eabi/4.8.4/../../../../arm-none-eabi/lib/libg_s.a(lib_a-sbrkr.o) (errno)
/usr/bin/../lib/gcc/arm-none-eabi/4.8.4/../../../../arm-none-eabi/lib/libg_s.a(lib_a-svfprintf.o)
                              /usr/bin/../lib/gcc/arm-none-eabi/4.8.4/../../../../arm-none-eabi/lib/libg_s.a(lib_a-vsnprintf.o) (_svfprintf_r)
/usr/bin/../lib/gcc/arm-none-eabi/4.8.4/../../../../arm-none-eabi/lib/libg_s.a(lib_a-vfprintf_i.o)
                              /usr/bin/../lib/gcc/arm-none-eabi/4.8.4/../../../../arm-none-eabi/lib/libg_s.a(lib_a-svfprintf.o) (_printf_i)
/usr/bin/../lib/gcc/arm-none-eabi/4.8.4/../../../../arm-none-eabi/lib/libg_s.a(lib_a-memchr-stub.o)
                              /usr/bin/../lib/gcc/arm-none-eabi/4.8.4/../../../../arm-none-eabi/lib/libg_s.a(lib_a-svfprintf.o) (memchr)
/usr/bin/../lib/gcc/arm-none-eabi/4.8.4/../../../../arm-none-eabi/lib/libg_s.a(lib_a-nano-reallocr.o)
                              /usr/bin/../lib/gcc/arm-none-eabi/4.8.4/../../../../arm-none-eabi/lib/libg_s.a(lib_a-svfprintf.o) (_realloc_r)
/usr/bin/../lib/gcc/arm-none-eabi/4.8.4/../../../../arm-none-eabi/lib/libg_s.a(lib_a-nano-msizer.o)
                              /usr/bin/../lib/gcc/arm-none-eabi/4.8.4/../../../../arm-none-eabi/lib/libg_s.a(lib_a-nano-reallocr.o) (_malloc_usable_size_r)

Allocating common symbols
Common symbol       size              file

flash_write_ptr     0x4               icomlib.a(console.o)
g_struClientBuffer  0x260             accloud.a(zc_hf_adpter.o)
os_tbeg_dst         0x4               icomlib.a(boot-hiflying.o)
g_struProtocolController
                    0x88              accloud.a(zc_protocol_con)
T2                  0x58              accloud.a(rsa.o)
arp_packet_len      0x2               icomlib.a(atcmd_icomm.o)
g_u16TcpMss         0x2               accloud.a(zc_hf_adpter.o)
msg_fw_up_end       0x20              icomlib.a(boot-hiflying.o)
app_res             0x10c             icomapps.a(tcp_server_demo)
os_bss_end          0x4               icomlib.a(boot-hiflying.o)
resolv_event_found  0x1               contikilib.a(resolv.o)
uip_len             0x2               contikilib.a(uip.o)
g_u8BcSendBuffer    0x64              accloud.a(zc_hf_adpter.o)
O_T1                0x58              accloud.a(bignum.o)
gNextsleeptime      0x10              icomlib.a(powersave.o)
arp_packet_buff     0x50              icomlib.a(atcmd_icomm.o)
errno               0x4               /usr/bin/../lib/gcc/arm-none-eabi/4.8.4/../../../../arm-none-eabi/lib/libg_s.a(lib_a-reent.o)
gSocketNetStatus    0x4               icomlib.a(smartComm.o)
g_struTimer         0x50              accloud.a(zc_timer.o)
gussleeptime        0x8               icomlib.a(powersave.o)
g_struHfAdapter     0x44              accloud.a(zc_hf_adpter.o)
rate_table          0x20              icomlib.a(ieee80211_mgmt.)
uip_sappdata        0x4               contikilib.a(uip.o)
uip_acc32           0x4               contikilib.a(uip.o)
os_bss_beg          0x4               icomlib.a(boot-hiflying.o)
os_tend_dst         0x4               icomlib.a(boot-hiflying.o)
u32cmd_lenx         0x4               icomlib.a(drv_flash.o)
tx_pktbuf           0x8               icomlib.a(atcmd_icomm.o)
Y                   0x58              accloud.a(bignum.o)
gwifistatus         0x1d8             icomlib.a(systemconf.o)
uip_aligned_buf     0x5ec             contikilib.a(uip.o)
uip_flags           0x1               contikilib.a(uip.o)
g_soc_table         0x4               icomlib.a(crypthw.o)
g_softap_lease      0x50              icomapps.a(soft_ap_init.o)
g_struRecvBuffer    0x260             accloud.a(zc_hf_adpter.o)
T                   0x58              accloud.a(rsa.o)
rx_skb              0x18              icomlib.a(ieee80211_mac.o)
O_RR                0x58              accloud.a(bignum.o)
ota_conf            0x181c            icomapps.a(ota_api.o)
msg_fw_up_start     0x40              icomlib.a(boot-hiflying.o)
g_struHfTimer       0xf0              accloud.a(zc_hf_adpter.o)
gCabrioConf         0x9e              icomlib.a(systemconf.o)
O_T                 0x58              accloud.a(bignum.o)
uip_udp_conn        0x4               contikilib.a(uip.o)
sk_pbuff            0x18              icomlib.a(atcmd_icomm.o)
g_u8MsgBuildBuffer  0x258             accloud.a(zc_hf_adpter.o)
ap_list             0x1194            icomlib.a(atcmd_icomm.o)
boot_au32spi_data   0x104             icomlib.a(boot-hiflying.o)
flash_address       0x4               icomlib.a(console.o)
g_struSendQueue     0x28              accloud.a(zc_hf_adpter.o)
i_config            0x80              icomlib.a(contiki-main.o)
mgmtdata            0x10c             icomlib.a(ieee80211_mgmt.)
g_softap_config     0x18              icomapps.a(soft_ap_init.o)
gNextwaketime       0x10              icomlib.a(powersave.o)
uip_appdata         0x4               contikilib.a(uip.o)
uip_conn            0x4               contikilib.a(uip.o)
tcpip_event         0x1               contikilib.a(tcpip.o)
g_struRecvQueue     0x28              accloud.a(zc_hf_adpter.o)
O_W                 0x1600            accloud.a(bignum.o)
os_dbeg_dst         0x4               icomlib.a(boot-hiflying.o)
g_u16TiTimerCount   0x14              accloud.a(zc_hf_adpter.o)
uip_conns           0x258             contikilib.a(uip.o)
i_cabrio_flash_cmd  0xe               icomlib.a(drv_flash.o)
boot_au32spi_cmd    0x104             icomlib.a(boot-hiflying.o)
T1                  0x58              accloud.a(rsa.o)
os_dbeg_src         0x4               icomlib.a(boot-hiflying.o)
nPingEcho           0x4               icomlib.a(ieee80211_net.o)
g_struRetxBuffer    0x260             accloud.a(zc_hf_adpter.o)
wep_rc4             0x108             icomlib.a(wep.o)
g_struSendBuffer    0x720             accloud.a(zc_hf_adpter.o)
g_struUartBuffer    0x3f0             accloud.a(zc_hf_adpter.o)
msg_restart         0x20              icomlib.a(boot-hiflying.o)
O_T2                0x58              accloud.a(bignum.o)
CMD_NUM             0x1               icomlib.a(atcmd_icomm.o)
exmode              0x1               icomlib.a(powersave.o)
akcontex            0x80              icomlib.a(airkiss.o)
msg_fw_upgrade      0x20              icomlib.a(boot-hiflying.o)
addr_stack_fence_local
                    0x4               icomlib.a(fence.o)
g_u8recvbuffer      0x3e8             accloud.a(zc_hf_adpter.o)
DATA_STATUS         0x1               icomlib.a(atcmd_icomm.o)
g_u8DevMsgBuildBuffer
                    0x200             accloud.a(ac_hal.o)
Z                   0x58              accloud.a(bignum.o)
uip_listenports     0x14              contikilib.a(uip.o)
buf                 0x40              accloud.a(rsa.o)
uip_draddr          0x4               contikilib.a(uip.o)
gwpa_ap             0x118             icomlib.a(soft_ap.o)
msgdata             0x10c             icomlib.a(console.o)
rssiLevelChangCnt   0x1               icomlib.a(ieee80211_mgmt.)
g_struRegisterInfo  0x8c              accloud.a(zc_configuratio)
papd_ltbl_pm        0x68              icomlib.a(drv_phy.o)
eventdata           0x10c             contikilib.a(dhcpc.o)
g_u16LocalPort      0x2               accloud.a(zc_hf_adpter.o)
os_tbeg_src         0x4               icomlib.a(boot-hiflying.o)
msg_main            0x20              icomlib.a(boot-hiflying.o)
smart_rc4           0x108             icomlib.a(smartConf.o)
rx_que              0x188             icomlib.a(ssv6200_rx.o)
amsg                0x100             icomlib.a(boot-hiflying.o)
u32spi_addr         0x4               icomlib.a(drv_flash.o)
process_para        0x2               ssv6060-main.o
u32cmd_len          0x4               icomlib.a(drv_flash.o)
gusbeaconinterval   0x8               icomlib.a(powersave.o)
uip_netmask         0x4               contikilib.a(uip.o)
uip_hostaddr        0x4               contikilib.a(uip.o)
boot_flash_cache_buffer
                    0x1000            icomlib.a(boot-hiflying.o)
i_boot_cabrio_flash_cmd
                    0xc               icomlib.a(boot-hiflying.o)
g_struZcConfigDb    0x134             accloud.a(zc_configuratio)
pGSRAM_KEY          0x4               icomlib.a(crypthw.o)
wep                 0xbf2             icomlib.a(wep.o)
papd_ltbl_am        0x68              icomlib.a(drv_phy.o)
extended_rate_table
                    0x20              icomlib.a(ieee80211_mgmt.)
os_dend_dst         0x4               icomlib.a(boot-hiflying.o)
g_struClientInfo    0x28              accloud.a(zc_client_manag)
gwpa_ctx            0x118             icomlib.a(ieee80211_mgmt.)
uip_slen            0x2               contikilib.a(uip.o)
gNetStatus          0xc               icomlib.a(atcmd_icomm.o)
X                   0x58              accloud.a(bignum.o)
uip_udp_conns       0x190             contikilib.a(uip.o)

Memory Configuration

Name             Origin             Length             Attributes
flash            0x03000000         0x00080000         xr
ram              0x02000000         0x00030000         xrw
*default*        0x00000000         0xffffffff

Linker script and memory map

                0x00080000                _flash_size_ = 0x80000
                0x00030000                _ram_size_ = 0x30000
                0x0202fffc                __stack_end__ = ((ORIGIN (ram) + 0x30000) - 0x4)
                0x00004000                _boot_size = 0x4000
                0x03000000                . = ORIGIN (flash)
                0x03000000                _sitxt0 = .

startup         0x03000000      0x1e0
 *(.startup1)
 .startup1      0x03000000       0x50 /tmp/ccmDjWLP.o
 *(.startup2)
 .startup2      0x03000050      0x184 /tmp/ccmDjWLP.o
                0x03000194                endless_loop
                0x030001e0                . = ALIGN (0x10)
 *fill*         0x030001d4        0xc 
                0x02029000                _vma_boot_text_beg = ((ORIGIN (ram) + 0x30000) - 0x7000)
                0x030001e0                _sitxt0a = (_sitxt0 + SIZEOF (startup))
                0x03004000                . = (ORIGIN (flash) + _boot_size)
                0x03004000                _sitxt2 = .

prog_in_flash   0x03004000    0x32394
 *(.vars_second_boot)
 .vars_second_boot
                0x03004000       0x48 /tmp/ccmDjWLP.o
 icomlib.a:contiki-main.o(.text.startup.main)
 .text.startup.main
                0x03004048      0x104 icomlib.a(contiki-main.o)
                0x03004048                main
 *(EXCLUDE_FILE(icomlib.a:ssv_lib.o icomlib.a:sha256.o icomlib.a:sha384.o icomlib.a:sha512.o icomlib.a:x905.o icomlib.a:asn1.o icomlib.a:pstmsqrcomba.o icomlib.a:pstmmulcomba.o icomlib.a:pstmmonreduce.o icomlib.a:pstm.o contikilib.a:socket_driver.o icomlib.a:powersave.o icomlib.a:hw_regs_api.o icomlib.a:flash_api.o icomlib.a:drv_flash.o icomlib.a:xmem.o icomlib.a:soft_ap.o icomlib.a:debug-uart.o icomlib.a:dbg-puts.o icomlib.a:strformat.o icomlib.a:dbg-printf.o icomlib.a:rate_control.o icomlib.a:throughput.o icomlib.a:ssv6200_tx.o icomlib.a:ssv6200_rx.o icomlib.a:ssvradio.o icomlib.a:drv_pktbuf.o icomlib.a:packetbuf.o icomlib.a:ieee80211_rdc.o icomlib.a:ieee80211_net.o contikilib.a:tcpip.o icomlib.a:etimer.o icomlib.a:clock.o icomlib.a:timer.o contikilib.a:uip.o icomlib.a:AES_decrypt.o icomlib.a:boot-hiflying.o) .text*)
 .text          0x0300414c        0x0 /tmp/ccmDjWLP.o
 .text          0x0300414c        0x0 ssv6060-main.o
 .text.AT_Customer
                0x0300414c       0x18 ssv6060-main.o
                0x0300414c                AT_Customer
 .text.AT_Customer2
                0x03004164       0x50 ssv6060-main.o
                0x03004164                AT_Customer2
 .text.process_thread_ac_nslookup_process
                0x030041b4       0xe4 ssv6060-main.o
 .text.process_thread_ac_tcp_connect_process
                0x03004298      0x224 ssv6060-main.o
 .text.AT_SmartLink
                0x030044bc       0x14 ssv6060-main.o
                0x030044bc                AT_SmartLink
 .text.AT_WIFIUART_DEMO
                0x030044d0       0x78 ssv6060-main.o
                0x030044d0                AT_WIFIUART_DEMO
 .text.AT_TCPSERVER_DEMO
                0x03004548       0x78 ssv6060-main.o
                0x03004548                AT_TCPSERVER_DEMO
 .text.allocate_buffer_in_ext
                0x030045c0       0x40 ssv6060-main.o
                0x030045c0                allocate_buffer_in_ext
 .text.TurnOffAllLED
                0x03004600       0x70 ssv6060-main.o
                0x03004600                TurnOffAllLED
 .text.process_thread_main_process
                0x03004670       0xa0 ssv6060-main.o
 .text.SetLED   0x03004710       0x50 ssv6060-main.o
                0x03004710                SetLED
 .text.Test_Connect
                0x03004760       0x24 ssv6060-main.o
                0x03004760                Test_Connect
 .text.Test_Connect_GateWay
                0x03004784       0x30 ssv6060-main.o
                0x03004784                Test_Connect_GateWay
 .text          0x030047b4        0x0 icomlib.a(printf.o)
 .text.write_str
                0x030047b4       0x1c icomlib.a(printf.o)
 .text.printf   0x030047d0       0x30 icomlib.a(printf.o)
                0x030047d0                printf
 .text.uart_tx1
                0x03004800       0x14 icomlib.a(printf.o)
                0x03004800                uart_tx1
 .text.printchar
                0x03004814       0x50 icomlib.a(printf.o)
 .text.prints   0x03004864      0x10c icomlib.a(printf.o)
 .text.printi   0x03004970      0x118 icomlib.a(printf.o)
 .text.print    0x03004a88      0x1f8 icomlib.a(printf.o)
                0x03004a88                print
 .text.sprintf  0x03004c80       0x30 icomlib.a(printf.o)
                0x03004c80                sprintf
 .text.vsprintf
                0x03004cb0       0x1c icomlib.a(printf.o)
                0x03004cb0                vsprintf
 .text.set_log_all_group_enable
                0x03004ccc       0x24 icomlib.a(printf.o)
                0x03004ccc                set_log_all_group_enable
 .text.set_log_all_group_disable
                0x03004cf0       0x24 icomlib.a(printf.o)
                0x03004cf0                set_log_all_group_disable
 .text.set_log_all_group
                0x03004d14       0x2c icomlib.a(printf.o)
                0x03004d14                set_log_all_group
 .text.set_log_all_level
                0x03004d40       0x8c icomlib.a(printf.o)
                0x03004d40                set_log_all_level
 .text.set_log_single_group_level
                0x03004dcc       0x40 icomlib.a(printf.o)
                0x03004dcc                set_log_single_group_level
 .text.dump_log_control_info
                0x03004e0c       0x78 icomlib.a(printf.o)
                0x03004e0c                dump_log_control_info
 .text          0x03004e84        0x0 icomlib.a(process.o)
 .text.process_alloc_event
                0x03004e84       0x18 icomlib.a(process.o)
                0x03004e84                process_alloc_event
 .text.check_process_in_que
                0x03004e9c       0x64 icomlib.a(process.o)
                0x03004e9c                check_process_in_que
 .text.process_debug
                0x03004f00      0x150 icomlib.a(process.o)
                0x03004f00                process_debug
 .text          0x03005050        0x0 icomlib.a(atcmd_icomm.o)
 .text.ip2int   0x03005050       0xe4 icomlib.a(atcmd_icomm.o)
                0x03005050                ip2int
 .text.At_RespOK
                0x03005134       0x74 icomlib.a(atcmd_icomm.o)
                0x03005134                At_RespOK
 .text.At_GetLocalMac
                0x030051a8       0x4c icomlib.a(atcmd_icomm.o)
                0x030051a8                At_GetLocalMac
 .text.At_GetVersion
                0x030051f4       0x2c icomlib.a(atcmd_icomm.o)
                0x030051f4                At_GetVersion
 .text.At_GetManufactureInfo
                0x03005220       0x2c icomlib.a(atcmd_icomm.o)
                0x03005220                At_GetManufactureInfo
 .text.At_SetWifiConfig
                0x0300524c      0x214 icomlib.a(atcmd_icomm.o)
                0x0300524c                At_SetWifiConfig
 .text.At_GetConfigure
                0x03005460       0xb4 icomlib.a(atcmd_icomm.o)
                0x03005460                At_GetConfigure
 .text.At_SetIfConfigure
                0x03005514      0x19c icomlib.a(atcmd_icomm.o)
                0x03005514                At_SetIfConfigure
 .text.At_GetNetStatus
                0x030056b0       0x30 icomlib.a(atcmd_icomm.o)
                0x030056b0                At_GetNetStatus
 .text.At_Ping  0x030056e0       0x80 icomlib.a(atcmd_icomm.o)
                0x030056e0                At_Ping
 .text.At_Help  0x03005760      0x210 icomlib.a(atcmd_icomm.o)
                0x03005760                At_Help
 .text.At_GetApStatus
                0x03005970       0x70 icomlib.a(atcmd_icomm.o)
                0x03005970                At_GetApStatus
 .text.At_GetWifiStatus
                0x030059e0      0x350 icomlib.a(atcmd_icomm.o)
                0x030059e0                At_GetWifiStatus
 .text.At_GetMRX
                0x03005d30      0x130 icomlib.a(atcmd_icomm.o)
                0x03005d30                At_GetMRX
 .text.At_TestMemRead
                0x03005e60       0x88 icomlib.a(atcmd_icomm.o)
                0x03005e60                At_TestMemRead
 .text.At_MboxDump
                0x03005ee8       0x10 icomlib.a(atcmd_icomm.o)
                0x03005ee8                At_MboxDump
 .text.At_WifiReset
                0x03005ef8       0x10 icomlib.a(atcmd_icomm.o)
                0x03005ef8                At_WifiReset
 .text.At_GetIPconf
                0x03005f08       0x4c icomlib.a(atcmd_icomm.o)
                0x03005f08                At_GetIPconf
 .text.At_NetScan
                0x03005f54       0x14 icomlib.a(atcmd_icomm.o)
                0x03005f54                At_NetScan
 .text.At_NetScan_Custom
                0x03005f68       0xb4 icomlib.a(atcmd_icomm.o)
                0x03005f68                At_NetScan_Custom
 .text.At_Connect
                0x0300601c       0x58 icomlib.a(atcmd_icomm.o)
                0x0300601c                At_Connect
 .text.process_thread_Cabrio_ate_process
                0x03006074      0x120 icomlib.a(atcmd_icomm.o)
 .text.At_Disconnect
                0x03006194       0x10 icomlib.a(atcmd_icomm.o)
                0x03006194                At_Disconnect
 .text.At_POWERSAVE
                0x030061a4       0x34 icomlib.a(atcmd_icomm.o)
                0x030061a4                At_POWERSAVE
 .text.At_WriteReg32
                0x030061d8       0xd4 icomlib.a(atcmd_icomm.o)
                0x030061d8                At_WriteReg32
 .text.At_ReadReg32
                0x030062ac       0x94 icomlib.a(atcmd_icomm.o)
                0x030062ac                At_ReadReg32
 .text.At_SetChannel
                0x03006340       0x9c icomlib.a(atcmd_icomm.o)
                0x03006340                At_SetChannel
 .text.At_GetRfStatus
                0x030063dc      0x198 icomlib.a(atcmd_icomm.o)
                0x030063dc                At_GetRfStatus
 .text.At_ShowRfCommand
                0x03006574      0x1cc icomlib.a(atcmd_icomm.o)
                0x03006574                At_ShowRfCommand
 .text.AT_RemoveCfsConf
                0x03006740        0x4 icomlib.a(atcmd_icomm.o)
                0x03006740                AT_RemoveCfsConf
 .text.At_bmode_count
                0x03006744       0x44 icomlib.a(atcmd_icomm.o)
                0x03006744                At_bmode_count
 .text.At_bmode_reset
                0x03006788       0x1c icomlib.a(atcmd_icomm.o)
                0x03006788                At_bmode_reset
 .text.At_gmode_count
                0x030067a4       0x48 icomlib.a(atcmd_icomm.o)
                0x030067a4                At_gmode_count
 .text.At_gmode_reset
                0x030067ec       0x20 icomlib.a(atcmd_icomm.o)
                0x030067ec                At_gmode_reset
 .text.At_filter_reset
                0x0300680c      0x1f0 icomlib.a(atcmd_icomm.o)
                0x0300680c                At_filter_reset
 .text.At_filter_count
                0x030069fc       0x5c icomlib.a(atcmd_icomm.o)
                0x030069fc                At_filter_count
 .text.at_cmd_start
                0x03006a58       0x1c icomlib.a(atcmd_icomm.o)
                0x03006a58                at_cmd_start
 .text.at_cmd_exit
                0x03006a74       0x18 icomlib.a(atcmd_icomm.o)
                0x03006a74                at_cmd_exit
 .text          0x03006a8c        0x0 icomlib.a(contiki-main.o)
 .text.test_rtimer
                0x03006a8c        0xc icomlib.a(contiki-main.o)
                0x03006a8c                test_rtimer
 .text.send_frame_rtimer
                0x03006a98        0xc icomlib.a(contiki-main.o)
                0x03006a98                send_frame_rtimer
 .text.dump_boot_message
                0x03006aa4       0x60 icomlib.a(contiki-main.o)
                0x03006aa4                dump_boot_message
 .text.get_all_config
                0x03006b04       0x38 icomlib.a(contiki-main.o)
                0x03006b04                get_all_config
 .text.log_init
                0x03006b3c       0x10 icomlib.a(contiki-main.o)
                0x03006b3c                log_init
 .text          0x03006b4c        0x0 icomlib.a(gpio_api.o)
 .text.pinMode  0x03006b4c       0x44 icomlib.a(gpio_api.o)
                0x03006b4c                pinMode
 .text.digitalWrite
                0x03006b90       0x10 icomlib.a(gpio_api.o)
                0x03006b90                digitalWrite
 .text.digitalRead
                0x03006ba0        0x4 icomlib.a(gpio_api.o)
                0x03006ba0                digitalRead
 .text.gpio_irq_enable
                0x03006ba4       0x40 icomlib.a(gpio_api.o)
                0x03006ba4                gpio_irq_enable
 .text.gpio_irq_disable
                0x03006be4       0x10 icomlib.a(gpio_api.o)
                0x03006be4                gpio_irq_disable
 .text          0x03006bf4        0x0 icomlib.a(drv_timer.o)
 .text.hwtmr_stop
                0x03006bf4       0x20 icomlib.a(drv_timer.o)
                0x03006bf4                hwtmr_stop
 .text.hwtmr_start
                0x03006c14       0x34 icomlib.a(drv_timer.o)
                0x03006c14                hwtmr_start
 .text.hwtmr_init
                0x03006c48       0x2c icomlib.a(drv_timer.o)
                0x03006c48                hwtmr_init
 .text          0x03006c74        0x0 icomlib.a(drv_uart.o)
 .text.drv_uart_init
                0x03006c74       0x78 icomlib.a(drv_uart.o)
                0x03006c74                drv_uart_init
 .text.drv_uart_tx_0
                0x03006cec        0xc icomlib.a(drv_uart.o)
                0x03006cec                drv_uart_tx_0
 .text.drv_uart_is_tx_busy_0
                0x03006cf8       0x18 icomlib.a(drv_uart.o)
                0x03006cf8                drv_uart_is_tx_busy_0
 .text.drv_uart_multiple_tx_0
                0x03006d10       0x28 icomlib.a(drv_uart.o)
                0x03006d10                drv_uart_multiple_tx_0
 .text.drv_uart_get_uart_fifo_length_0
                0x03006d38        0x8 icomlib.a(drv_uart.o)
                0x03006d38                drv_uart_get_uart_fifo_length_0
 .text.drv_uart_enable_tx_int_0
                0x03006d40       0x14 icomlib.a(drv_uart.o)
                0x03006d40                drv_uart_enable_tx_int_0
 .text.drv_uart_disable_tx_int_0
                0x03006d54       0x14 icomlib.a(drv_uart.o)
                0x03006d54                drv_uart_disable_tx_int_0
 .text.drv_uart_enable_rx_int_0
                0x03006d68       0x14 icomlib.a(drv_uart.o)
                0x03006d68                drv_uart_enable_rx_int_0
 .text.drv_uart_disable_rx_int_0
                0x03006d7c       0x14 icomlib.a(drv_uart.o)
                0x03006d7c                drv_uart_disable_rx_int_0
 .text.drv_datauart_init
                0x03006d90      0x160 icomlib.a(drv_uart.o)
                0x03006d90                drv_datauart_init
 .text.drv_datauart_Deinit
                0x03006ef0       0x58 icomlib.a(drv_uart.o)
                0x03006ef0                drv_datauart_Deinit
 .text.drv_datauart_conf
                0x03006f48       0x7c icomlib.a(drv_uart.o)
                0x03006f48                drv_datauart_conf
 .text          0x03006fc4        0x0 icomlib.a(hw_init.o)
 .text.hw_tbl_write
                0x03006fc4       0x60 icomlib.a(hw_init.o)
 .text.modulator_and_pll_reset
                0x03007024       0xd4 icomlib.a(hw_init.o)
                0x03007024                modulator_and_pll_reset
 .text.ssv6xxx_phy_disable
                0x030070f8       0x14 icomlib.a(hw_init.o)
                0x030070f8                ssv6xxx_phy_disable
 .text.ssv6xxx_mac_disable
                0x0300710c       0x14 icomlib.a(hw_init.o)
                0x0300710c                ssv6xxx_mac_disable
 .text.ssv6xxx_hw_rf_phy_mac_reset
                0x03007120      0x1a8 icomlib.a(hw_init.o)
                0x03007120                ssv6xxx_hw_rf_phy_mac_reset
 .text.ssv6xxx_hw_radio_init
                0x030072c8      0x1b0 icomlib.a(hw_init.o)
                0x030072c8                ssv6xxx_hw_radio_init
 .text          0x03007478        0x0 icomlib.a(ssv_lib_slow.o)
 .text.mac_atoi
                0x03007478       0x44 icomlib.a(ssv_lib_slow.o)
                0x03007478                mac_atoi
 .text.dbg_dump_reg_pc
                0x030074bc       0x10 icomlib.a(ssv_lib_slow.o)
                0x030074bc                dbg_dump_reg_pc
 .text.dbg_dump_reg_sp
                0x030074cc       0x10 icomlib.a(ssv_lib_slow.o)
                0x030074cc                dbg_dump_reg_sp
 .text.dbg_dump_reg_cpsr
                0x030074dc       0xa0 icomlib.a(ssv_lib_slow.o)
                0x030074dc                dbg_dump_reg_cpsr
 .text.dbg_dump_binary
                0x0300757c       0x78 icomlib.a(ssv_lib_slow.o)
                0x0300757c                dbg_dump_binary
 .text.dbg_dump_mac
                0x030075f4       0x48 icomlib.a(ssv_lib_slow.o)
                0x030075f4                dbg_dump_mac
 .text.dbg_dump_ip
                0x0300763c       0x38 icomlib.a(ssv_lib_slow.o)
                0x0300763c                dbg_dump_ip
 .text          0x03007674        0x0 icomlib.a(swpwm.o)
 .text.initSwPWM
                0x03007674       0x28 icomlib.a(swpwm.o)
                0x03007674                initSwPWM
 .text.pwm_unregister
                0x0300769c       0xa0 icomlib.a(swpwm.o)
                0x0300769c                pwm_unregister
 .text.disableSwPWM
                0x0300773c       0x34 icomlib.a(swpwm.o)
                0x0300773c                disableSwPWM
 .text.pwm_register
                0x03007770       0xe4 icomlib.a(swpwm.o)
                0x03007770                pwm_register
 .text.enableSwPWM
                0x03007854       0x6c icomlib.a(swpwm.o)
                0x03007854                enableSwPWM
 .text          0x030078c0        0x0 icomlib.a(systemconf.o)
 .text.gconfig_gen_header_to_mem
                0x030078c0       0x3c icomlib.a(systemconf.o)
                0x030078c0                gconfig_gen_header_to_mem
 .text.gconfig_gen_config_to_mem
                0x030078fc       0x48 icomlib.a(systemconf.o)
                0x030078fc                gconfig_gen_config_to_mem
 .text.gconfig_gen_config_table
                0x03007944      0x114 icomlib.a(systemconf.o)
                0x03007944                gconfig_gen_config_table
 .text.gconfig_save_config
                0x03007a58       0x48 icomlib.a(systemconf.o)
                0x03007a58                gconfig_save_config
 .text.gconfig_set_softap_ssid
                0x03007aa0       0xb4 icomlib.a(systemconf.o)
                0x03007aa0                gconfig_set_softap_ssid
 .text.gconfig_set_enable_smart
                0x03007b54       0x78 icomlib.a(systemconf.o)
                0x03007b54                gconfig_set_enable_smart
 .text.gconfig_set_auto_connect
                0x03007bcc       0x40 icomlib.a(systemconf.o)
                0x03007bcc                gconfig_set_auto_connect
 .text.gconfig_init_global_conf_by_define
                0x03007c0c       0x14 icomlib.a(systemconf.o)
                0x03007c0c                gconfig_init_global_conf_by_define
 .text.reset_global_conf
                0x03007c20       0x3c icomlib.a(systemconf.o)
                0x03007c20                reset_global_conf
 .text.remove_sysconfig
                0x03007c5c       0x58 icomlib.a(systemconf.o)
                0x03007c5c                remove_sysconfig
 .text.write_wifi_config
                0x03007cb4       0xa4 icomlib.a(systemconf.o)
                0x03007cb4                write_wifi_config
 .text.read_wifi_config
                0x03007d58       0x90 icomlib.a(systemconf.o)
                0x03007d58                read_wifi_config
 .text.init_global_conf
                0x03007de8      0x144 icomlib.a(systemconf.o)
                0x03007de8                init_global_conf
 .text.clear_ap_lists
                0x03007f2c       0x3c icomlib.a(systemconf.o)
                0x03007f2c                clear_ap_lists
 .text          0x03007f68        0x0 icomlib.a(wdog_api.o)
 .text.process_thread_watchdog_process
                0x03007f68       0xf4 icomlib.a(wdog_api.o)
 .text.api_wdog_reboot
                0x0300805c        0x4 icomlib.a(wdog_api.o)
                0x0300805c                api_wdog_reboot
 .text.api_wdog_period_5000ms
                0x03008060        0x4 icomlib.a(wdog_api.o)
                0x03008060                api_wdog_period_5000ms
 .text.api_wdog_period_10000ms
                0x03008064        0x4 icomlib.a(wdog_api.o)
                0x03008064                api_wdog_period_10000ms
 .text.api_wdog_period_cutommed
                0x03008068        0x4 icomlib.a(wdog_api.o)
                0x03008068                api_wdog_period_cutommed
 .text.api_wdog_stop
                0x0300806c        0x4 icomlib.a(wdog_api.o)
                0x0300806c                api_wdog_stop
 .text.clear_rx_fifo
                0x03008070       0xc8 icomlib.a(wdog_api.o)
                0x03008070                clear_rx_fifo
 .text          0x03008138        0x0 icomlib.a(bsp.o)
 .text.set_mrx_filter_sta
                0x03008138      0x254 icomlib.a(bsp.o)
                0x03008138                set_mrx_filter_sta
 .text.set_softap_trap_enable
                0x0300838c       0x14 icomlib.a(bsp.o)
                0x0300838c                set_softap_trap_enable
 .text.set_softap_trap_disable
                0x030083a0       0x14 icomlib.a(bsp.o)
                0x030083a0                set_softap_trap_disable
 .text.set_mrx_filter_softap
                0x030083b4      0x2ac icomlib.a(bsp.o)
                0x030083b4                set_mrx_filter_softap
 .text.chk_chip_valid
                0x03008660       0x2c icomlib.a(bsp.o)
                0x03008660                chk_chip_valid
 .text.bsp_init
                0x0300868c       0x8c icomlib.a(bsp.o)
                0x0300868c                bsp_init
 .text.enable_dcdc_mode
                0x03008718       0x20 icomlib.a(bsp.o)
                0x03008718                enable_dcdc_mode
 .text          0x03008738        0x0 icomlib.a(crypthw.o)
 .text.drv_id_mng_alloc
                0x03008738       0x7c icomlib.a(crypthw.o)
                0x03008738                drv_id_mng_alloc
 .text.PBUF_MAlloc_Raw
                0x030087b4       0x50 icomlib.a(crypthw.o)
                0x030087b4                PBUF_MAlloc_Raw
 .text.wpa_drv_init
                0x03008804       0x40 icomlib.a(crypthw.o)
                0x03008804                wpa_drv_init
 .text.soft_mac_init
                0x03008844       0x68 icomlib.a(crypthw.o)
                0x03008844                soft_mac_init
 .text          0x030088ac        0x0 icomlib.a(dbg-atcmd-api.o)
 .text.LogTemperature
                0x030088ac       0x94 icomlib.a(dbg-atcmd-api.o)
                0x030088ac                LogTemperature
 .text.Channel2Index
                0x03008940       0x1c icomlib.a(dbg-atcmd-api.o)
                0x03008940                Channel2Index
 .text.Gain2Power
                0x0300895c      0x15c icomlib.a(dbg-atcmd-api.o)
                0x0300895c                Gain2Power
 .text.Power2BGain
                0x03008ab8      0x1a0 icomlib.a(dbg-atcmd-api.o)
                0x03008ab8                Power2BGain
 .text.Power2GGain
                0x03008c58      0x188 icomlib.a(dbg-atcmd-api.o)
                0x03008c58                Power2GGain
 .text.GetDefaultGain
                0x03008de0       0xb4 icomlib.a(dbg-atcmd-api.o)
                0x03008de0                GetDefaultGain
 .text.Freq2P   0x03008e94        0xc icomlib.a(dbg-atcmd-api.o)
                0x03008e94                Freq2P
 .text.Freq2N   0x03008ea0        0xc icomlib.a(dbg-atcmd-api.o)
                0x03008ea0                Freq2N
 .text.UpdateConf
                0x03008eac      0x368 icomlib.a(dbg-atcmd-api.o)
                0x03008eac                UpdateConf
 .text.drv_phy_wait_rdy2
                0x03009214       0x30 icomlib.a(dbg-atcmd-api.o)
                0x03009214                drv_phy_wait_rdy2
 .text.mac_transfer
                0x03009244       0x40 icomlib.a(dbg-atcmd-api.o)
                0x03009244                mac_transfer
 .text.serial_transfer
                0x03009284       0x58 icomlib.a(dbg-atcmd-api.o)
                0x03009284                serial_transfer
 .text._DBG_AT_SET_PEERMAC
                0x030092dc       0x2c icomlib.a(dbg-atcmd-api.o)
                0x030092dc                _DBG_AT_SET_PEERMAC
 .text._DBG_AT_SET_PEERMAC_SOFTAP
                0x03009308       0x38 icomlib.a(dbg-atcmd-api.o)
                0x03009308                _DBG_AT_SET_PEERMAC_SOFTAP
 .text._DBG_AT_RESET_PEERMAC_SOFTAP
                0x03009340       0x38 icomlib.a(dbg-atcmd-api.o)
                0x03009340                _DBG_AT_RESET_PEERMAC_SOFTAP
 .text._DBG_AT_SET_CHANNEL
                0x03009378       0x50 icomlib.a(dbg-atcmd-api.o)
                0x03009378                _DBG_AT_SET_CHANNEL
 .text._DBG_AT_SET_MAC
                0x030093c8        0x4 icomlib.a(dbg-atcmd-api.o)
                0x030093c8                _DBG_AT_SET_MAC
 .text._DBG_AT_SET_BSSID
                0x030093cc        0x4 icomlib.a(dbg-atcmd-api.o)
                0x030093cc                _DBG_AT_SET_BSSID
 .text._DBG_AT_SEND
                0x030093d0       0x58 icomlib.a(dbg-atcmd-api.o)
                0x030093d0                _DBG_AT_SEND
 .text.process_thread_start_tx_process
                0x03009428      0x120 icomlib.a(dbg-atcmd-api.o)
 .text.RFStart  0x03009548      0x2b8 icomlib.a(dbg-atcmd-api.o)
                0x03009548                RFStart
 .text.process_thread_rf_start_process
                0x03009800       0xf0 icomlib.a(dbg-atcmd-api.o)
 .text.RFRate   0x030098f0      0x2ac icomlib.a(dbg-atcmd-api.o)
                0x030098f0                RFRate
 .text.RFBGain  0x03009b9c       0x88 icomlib.a(dbg-atcmd-api.o)
                0x03009b9c                RFBGain
 .text.RFGNGain
                0x03009c24       0x88 icomlib.a(dbg-atcmd-api.o)
                0x03009c24                RFGNGain
 .text.RFIQPhase
                0x03009cac       0x88 icomlib.a(dbg-atcmd-api.o)
                0x03009cac                RFIQPhase
 .text.RFIQAmp  0x03009d34       0x88 icomlib.a(dbg-atcmd-api.o)
                0x03009d34                RFIQAmp
 .text.RFStop   0x03009dbc       0x3c icomlib.a(dbg-atcmd-api.o)
                0x03009dbc                RFStop
 .text.RFReset  0x03009df8      0x454 icomlib.a(dbg-atcmd-api.o)
                0x03009df8                RFReset
 .text.RFCount  0x0300a24c       0x58 icomlib.a(dbg-atcmd-api.o)
                0x0300a24c                RFCount
 .text.RFFreqOffset
                0x0300a2a4       0xf0 icomlib.a(dbg-atcmd-api.o)
                0x0300a2a4                RFFreqOffset
 .text.RFTempcsHT
                0x0300a394       0xa8 icomlib.a(dbg-atcmd-api.o)
                0x0300a394                RFTempcsHT
 .text.RFTempcsRT
                0x0300a43c       0xa8 icomlib.a(dbg-atcmd-api.o)
                0x0300a43c                RFTempcsRT
 .text.RFTempcsLT
                0x0300a4e4       0xa8 icomlib.a(dbg-atcmd-api.o)
                0x0300a4e4                RFTempcsLT
 .text.ReadTemperature
                0x0300a58c       0xc8 icomlib.a(dbg-atcmd-api.o)
                0x0300a58c                ReadTemperature
 .text.process_thread_temperature_compensator_process
                0x0300a654      0x298 icomlib.a(dbg-atcmd-api.o)
 .text.EnableTemperatureCompensator
                0x0300a8ec       0x1c icomlib.a(dbg-atcmd-api.o)
                0x0300a8ec                EnableTemperatureCompensator
 .text.DumpRFParam
                0x0300a908       0xec icomlib.a(dbg-atcmd-api.o)
                0x0300a908                DumpRFParam
 .text.WriteParam2Flash
                0x0300a9f4      0x2e0 icomlib.a(dbg-atcmd-api.o)
                0x0300a9f4                WriteParam2Flash
 .text.RFSetLDO
                0x0300acd4       0x7c icomlib.a(dbg-atcmd-api.o)
                0x0300acd4                RFSetLDO
 .text.RFSetPA1
                0x0300ad50       0x5c icomlib.a(dbg-atcmd-api.o)
                0x0300ad50                RFSetPA1
 .text.RFSetPA2
                0x0300adac       0x60 icomlib.a(dbg-atcmd-api.o)
                0x0300adac                RFSetPA2
 .text.RFSetPA3
                0x0300ae0c       0x5c icomlib.a(dbg-atcmd-api.o)
                0x0300ae0c                RFSetPA3
 .text.RFSetXTAL
                0x0300ae68       0x60 icomlib.a(dbg-atcmd-api.o)
                0x0300ae68                RFSetXTAL
 .text.RFSetFlashXTAL
                0x0300aec8       0x9c icomlib.a(dbg-atcmd-api.o)
                0x0300aec8                RFSetFlashXTAL
 .text.SetTemperatureBoundary
                0x0300af64       0x90 icomlib.a(dbg-atcmd-api.o)
                0x0300af64                SetTemperatureBoundary
 .text.Radio_Command
                0x0300aff4     0x10c4 icomlib.a(dbg-atcmd-api.o)
                0x0300aff4                Radio_Command
 .text.Parse_Radio_Command
                0x0300c0b8       0x88 icomlib.a(dbg-atcmd-api.o)
                0x0300c0b8                Parse_Radio_Command
 .text          0x0300c140        0x0 icomlib.a(drv_mac.o)
 .text.SET_STA_MAC
                0x0300c140       0x74 icomlib.a(drv_mac.o)
                0x0300c140                SET_STA_MAC
 .text.GET_STA_MAC
                0x0300c1b4       0x4c icomlib.a(drv_mac.o)
                0x0300c1b4                GET_STA_MAC
 .text.SET_BSSID
                0x0300c200       0x74 icomlib.a(drv_mac.o)
                0x0300c200                SET_BSSID
 .text.GET_BSSID
                0x0300c274       0x4c icomlib.a(drv_mac.o)
                0x0300c274                GET_BSSID
 .text.SET_PEER_MAC0
                0x0300c2c0       0x74 icomlib.a(drv_mac.o)
                0x0300c2c0                SET_PEER_MAC0
 .text.GET_PEER_MAC0
                0x0300c334       0x4c icomlib.a(drv_mac.o)
                0x0300c334                GET_PEER_MAC0
 .text.SET_PEER_MAC1
                0x0300c380       0x74 icomlib.a(drv_mac.o)
                0x0300c380                SET_PEER_MAC1
 .text.GET_PEER_MAC1
                0x0300c3f4       0x4c icomlib.a(drv_mac.o)
                0x0300c3f4                GET_PEER_MAC1
 .text.SET_MRX_MCAST_TB0
                0x0300c440       0x74 icomlib.a(drv_mac.o)
                0x0300c440                SET_MRX_MCAST_TB0
 .text.GET_MRX_MCAST_TB0
                0x0300c4b4       0x4c icomlib.a(drv_mac.o)
                0x0300c4b4                GET_MRX_MCAST_TB0
 .text.SET_MRX_MCAST_TB1
                0x0300c500       0x74 icomlib.a(drv_mac.o)
                0x0300c500                SET_MRX_MCAST_TB1
 .text.GET_MRX_MCAST_TB1
                0x0300c574       0x4c icomlib.a(drv_mac.o)
                0x0300c574                GET_MRX_MCAST_TB1
 .text.SET_MRX_MCAST_TB2
                0x0300c5c0       0x74 icomlib.a(drv_mac.o)
                0x0300c5c0                SET_MRX_MCAST_TB2
 .text.GET_MRX_MCAST_TB2
                0x0300c634       0x4c icomlib.a(drv_mac.o)
                0x0300c634                GET_MRX_MCAST_TB2
 .text.SET_MRX_MCAST_TB3
                0x0300c680       0x74 icomlib.a(drv_mac.o)
                0x0300c680                SET_MRX_MCAST_TB3
 .text.GET_MRX_MCAST_TB3
                0x0300c6f4       0x4c icomlib.a(drv_mac.o)
                0x0300c6f4                GET_MRX_MCAST_TB3
 .text.SET_MRX_MCAST_MASK0
                0x0300c740       0x74 icomlib.a(drv_mac.o)
                0x0300c740                SET_MRX_MCAST_MASK0
 .text.GET_MRX_MCAST_MASK0
                0x0300c7b4       0x4c icomlib.a(drv_mac.o)
                0x0300c7b4                GET_MRX_MCAST_MASK0
 .text.SET_MRX_MCAST_MASK1
                0x0300c800       0x74 icomlib.a(drv_mac.o)
                0x0300c800                SET_MRX_MCAST_MASK1
 .text.GET_MRX_MCAST_MASK1
                0x0300c874       0x4c icomlib.a(drv_mac.o)
                0x0300c874                GET_MRX_MCAST_MASK1
 .text.SET_MRX_MCAST_MASK2
                0x0300c8c0       0x74 icomlib.a(drv_mac.o)
                0x0300c8c0                SET_MRX_MCAST_MASK2
 .text.GET_MRX_MCAST_MASK2
                0x0300c934       0x4c icomlib.a(drv_mac.o)
                0x0300c934                GET_MRX_MCAST_MASK2
 .text.SET_MRX_MCAST_MASK3
                0x0300c980       0x74 icomlib.a(drv_mac.o)
                0x0300c980                SET_MRX_MCAST_MASK3
 .text.GET_MRX_MCAST_MASK3
                0x0300c9f4       0x4c icomlib.a(drv_mac.o)
                0x0300c9f4                GET_MRX_MCAST_MASK3
 .text.SET_BA_TA
                0x0300ca40       0x74 icomlib.a(drv_mac.o)
                0x0300ca40                SET_BA_TA
 .text.GET_BA_TA
                0x0300cab4       0x4c icomlib.a(drv_mac.o)
                0x0300cab4                GET_BA_TA
 .text.SET_ACK_GEN_RA
                0x0300cb00       0x74 icomlib.a(drv_mac.o)
                0x0300cb00                SET_ACK_GEN_RA
 .text.GET_ACK_GEN_RA
                0x0300cb74       0x4c icomlib.a(drv_mac.o)
                0x0300cb74                GET_ACK_GEN_RA
 .text          0x0300cbc0        0x0 icomlib.a(drv_phy.o)
 .text.rg_idacai_pgag0_load
                0x0300cbc0       0x1c icomlib.a(drv_phy.o)
                0x0300cbc0                rg_idacai_pgag0_load
 .text.rg_idacai_pgag1_load
                0x0300cbdc       0x1c icomlib.a(drv_phy.o)
                0x0300cbdc                rg_idacai_pgag1_load
 .text.rg_idacai_pgag2_load
                0x0300cbf8       0x1c icomlib.a(drv_phy.o)
                0x0300cbf8                rg_idacai_pgag2_load
 .text.rg_idacai_pgag3_load
                0x0300cc14       0x1c icomlib.a(drv_phy.o)
                0x0300cc14                rg_idacai_pgag3_load
 .text.rg_idacai_pgag4_load
                0x0300cc30       0x1c icomlib.a(drv_phy.o)
                0x0300cc30                rg_idacai_pgag4_load
 .text.rg_idacai_pgag5_load
                0x0300cc4c       0x1c icomlib.a(drv_phy.o)
                0x0300cc4c                rg_idacai_pgag5_load
 .text.rg_idacai_pgag6_load
                0x0300cc68       0x1c icomlib.a(drv_phy.o)
                0x0300cc68                rg_idacai_pgag6_load
 .text.rg_idacai_pgag7_load
                0x0300cc84       0x1c icomlib.a(drv_phy.o)
                0x0300cc84                rg_idacai_pgag7_load
 .text.rg_idacai_pgag8_load
                0x0300cca0       0x1c icomlib.a(drv_phy.o)
                0x0300cca0                rg_idacai_pgag8_load
 .text.rg_idacai_pgag9_load
                0x0300ccbc       0x1c icomlib.a(drv_phy.o)
                0x0300ccbc                rg_idacai_pgag9_load
 .text.rg_idacai_pgag10_load
                0x0300ccd8       0x1c icomlib.a(drv_phy.o)
                0x0300ccd8                rg_idacai_pgag10_load
 .text.rg_idacai_pgag11_load
                0x0300ccf4       0x1c icomlib.a(drv_phy.o)
                0x0300ccf4                rg_idacai_pgag11_load
 .text.rg_idacai_pgag12_load
                0x0300cd10       0x1c icomlib.a(drv_phy.o)
                0x0300cd10                rg_idacai_pgag12_load
 .text.rg_idacai_pgag13_load
                0x0300cd2c       0x1c icomlib.a(drv_phy.o)
                0x0300cd2c                rg_idacai_pgag13_load
 .text.rg_idacai_pgag14_load
                0x0300cd48       0x1c icomlib.a(drv_phy.o)
                0x0300cd48                rg_idacai_pgag14_load
 .text.rg_idacai_pgag15_load
                0x0300cd64       0x1c icomlib.a(drv_phy.o)
                0x0300cd64                rg_idacai_pgag15_load
 .text.rg_idacaq_pgag0_load
                0x0300cd80       0x1c icomlib.a(drv_phy.o)
                0x0300cd80                rg_idacaq_pgag0_load
 .text.rg_idacaq_pgag1_load
                0x0300cd9c       0x1c icomlib.a(drv_phy.o)
                0x0300cd9c                rg_idacaq_pgag1_load
 .text.rg_idacaq_pgag2_load
                0x0300cdb8       0x1c icomlib.a(drv_phy.o)
                0x0300cdb8                rg_idacaq_pgag2_load
 .text.rg_idacaq_pgag3_load
                0x0300cdd4       0x1c icomlib.a(drv_phy.o)
                0x0300cdd4                rg_idacaq_pgag3_load
 .text.rg_idacaq_pgag4_load
                0x0300cdf0       0x1c icomlib.a(drv_phy.o)
                0x0300cdf0                rg_idacaq_pgag4_load
 .text.rg_idacaq_pgag5_load
                0x0300ce0c       0x1c icomlib.a(drv_phy.o)
                0x0300ce0c                rg_idacaq_pgag5_load
 .text.rg_idacaq_pgag6_load
                0x0300ce28       0x1c icomlib.a(drv_phy.o)
                0x0300ce28                rg_idacaq_pgag6_load
 .text.rg_idacaq_pgag7_load
                0x0300ce44       0x1c icomlib.a(drv_phy.o)
                0x0300ce44                rg_idacaq_pgag7_load
 .text.rg_idacaq_pgag8_load
                0x0300ce60       0x1c icomlib.a(drv_phy.o)
                0x0300ce60                rg_idacaq_pgag8_load
 .text.rg_idacaq_pgag9_load
                0x0300ce7c       0x1c icomlib.a(drv_phy.o)
                0x0300ce7c                rg_idacaq_pgag9_load
 .text.rg_idacaq_pgag10_load
                0x0300ce98       0x1c icomlib.a(drv_phy.o)
                0x0300ce98                rg_idacaq_pgag10_load
 .text.rg_idacaq_pgag11_load
                0x0300ceb4       0x1c icomlib.a(drv_phy.o)
                0x0300ceb4                rg_idacaq_pgag11_load
 .text.rg_idacaq_pgag12_load
                0x0300ced0       0x1c icomlib.a(drv_phy.o)
                0x0300ced0                rg_idacaq_pgag12_load
 .text.rg_idacaq_pgag13_load
                0x0300ceec       0x1c icomlib.a(drv_phy.o)
                0x0300ceec                rg_idacaq_pgag13_load
 .text.rg_idacaq_pgag14_load
                0x0300cf08       0x1c icomlib.a(drv_phy.o)
                0x0300cf08                rg_idacaq_pgag14_load
 .text.rg_idacaq_pgag15_load
                0x0300cf24       0x1c icomlib.a(drv_phy.o)
                0x0300cf24                rg_idacaq_pgag15_load
 .text.rfreg_byxtal_load
                0x0300cf40       0x84 icomlib.a(drv_phy.o)
                0x0300cf40                rfreg_byxtal_load
 .text.rfreg_bych_load
                0x0300cfc4       0x7c icomlib.a(drv_phy.o)
                0x0300cfc4                rfreg_bych_load
 .text.rfreg_bypa_load
                0x0300d040       0x44 icomlib.a(drv_phy.o)
                0x0300d040                rfreg_bypa_load
 .text.drv_phy_tbl_load
                0x0300d084       0x38 icomlib.a(drv_phy.o)
                0x0300d084                drv_phy_tbl_load
 .text.drv_phy_cfgtbl_load
                0x0300d0bc       0x20 icomlib.a(drv_phy.o)
                0x0300d0bc                drv_phy_cfgtbl_load
 .text.drv_phy_wait_rdy
                0x0300d0dc       0x30 icomlib.a(drv_phy.o)
                0x0300d0dc                drv_phy_wait_rdy
 .text.drv_phy_cali_rcal
                0x0300d10c       0x68 icomlib.a(drv_phy.o)
                0x0300d10c                drv_phy_cali_rcal
 .text.drv_phy_cali_tssi
                0x0300d174      0x1b8 icomlib.a(drv_phy.o)
                0x0300d174                drv_phy_cali_tssi
 .text.drv_phy_temperature
                0x0300d32c       0x90 icomlib.a(drv_phy.o)
                0x0300d32c                drv_phy_temperature
 .text.drv_phy_cali_papd_learning
                0x0300d3bc      0x1ec icomlib.a(drv_phy.o)
                0x0300d3bc                drv_phy_cali_papd_learning
 .text.drv_phy_channel_change
                0x0300d5a8       0x74 icomlib.a(drv_phy.o)
                0x0300d5a8                drv_phy_channel_change
 .text.drv_phy_sprm
                0x0300d61c       0x64 icomlib.a(drv_phy.o)
                0x0300d61c                drv_phy_sprm
 .text.drv_phy_cali_txlo
                0x0300d680      0x16c icomlib.a(drv_phy.o)
                0x0300d680                drv_phy_cali_txlo
 .text.drv_phy_cali_txiq
                0x0300d7ec      0x160 icomlib.a(drv_phy.o)
                0x0300d7ec                drv_phy_cali_txiq
 .text.drv_phy_cali_rxrc
                0x0300d94c      0x23c icomlib.a(drv_phy.o)
                0x0300d94c                drv_phy_cali_rxrc
 .text.drv_phy_fft_enrg
                0x0300db88       0x54 icomlib.a(drv_phy.o)
                0x0300db88                drv_phy_fft_enrg
 .text.drv_phy_cali_rxiq_fft
                0x0300dbdc      0x1a4 icomlib.a(drv_phy.o)
                0x0300dbdc                drv_phy_cali_rxiq_fft
 .text.rtbl_cali_reg_rmw
                0x0300dd80       0x28 icomlib.a(drv_phy.o)
                0x0300dd80                rtbl_cali_reg_rmw
 .text.rtbl_cali_pre_load
                0x0300dda8       0x68 icomlib.a(drv_phy.o)
                0x0300dda8                rtbl_cali_pre_load
 .text.drv_phy_cali_rxdc
                0x0300de10      0x224 icomlib.a(drv_phy.o)
                0x0300de10                drv_phy_cali_rxdc
 .text.rtbl_cali_load
                0x0300e034       0x24 icomlib.a(drv_phy.o)
                0x0300e034                rtbl_cali_load
 .text.rtbl_cali_export
                0x0300e058       0x18 icomlib.a(drv_phy.o)
                0x0300e058                rtbl_cali_export
 .text.rtbl_cali_load_def
                0x0300e070       0x68 icomlib.a(drv_phy.o)
                0x0300e070                rtbl_cali_load_def
 .text.rtbl_cali_reset
                0x0300e0d8       0x38 icomlib.a(drv_phy.o)
                0x0300e0d8                rtbl_cali_reset
 .text.rtbl_cali_set
                0x0300e110       0x84 icomlib.a(drv_phy.o)
                0x0300e110                rtbl_cali_set
 .text.drv_phy_init
                0x0300e194       0x90 icomlib.a(drv_phy.o)
                0x0300e194                drv_phy_init
 .text.drv_phy_off
                0x0300e224       0x14 icomlib.a(drv_phy.o)
                0x0300e224                drv_phy_off
 .text.drv_phy_b_only
                0x0300e238       0x10 icomlib.a(drv_phy.o)
                0x0300e238                drv_phy_b_only
 .text.drv_phy_bgn
                0x0300e248       0x14 icomlib.a(drv_phy.o)
                0x0300e248                drv_phy_bgn
 .text.drv_phy_on
                0x0300e25c       0x14 icomlib.a(drv_phy.o)
                0x0300e25c                drv_phy_on
 .text.drv_phy_cali_ro_iqcal_o
                0x0300e270        0xc icomlib.a(drv_phy.o)
                0x0300e270                drv_phy_cali_ro_iqcal_o
 .text.drv_phy_cali_papd_div
                0x0300e27c       0x84 icomlib.a(drv_phy.o)
                0x0300e27c                drv_phy_cali_papd_div
 .text.drv_phy_cali_papd_gain_est
                0x0300e300      0x160 icomlib.a(drv_phy.o)
                0x0300e300                drv_phy_cali_papd_gain_est
 .text.drv_phy_cali_ph_wrap
                0x0300e460       0x1c icomlib.a(drv_phy.o)
                0x0300e460                drv_phy_cali_ph_wrap
 .text.drv_phy_cali_papd
                0x0300e47c      0x5a4 icomlib.a(drv_phy.o)
                0x0300e47c                drv_phy_cali_papd
 .text.drv_phy_reg_init
                0x0300ea20       0xd0 icomlib.a(drv_phy.o)
                0x0300ea20                drv_phy_reg_init
 .text.drv_phy_cali_rtbl_load
                0x0300eaf0       0x5c icomlib.a(drv_phy.o)
                0x0300eaf0                drv_phy_cali_rtbl_load
 .text.phy_cali_config_load
                0x0300eb4c      0x124 icomlib.a(drv_phy.o)
                0x0300eb4c                phy_cali_config_load
 .text.drv_phy_cali_rtbl_load_def
                0x0300ec70       0x5c icomlib.a(drv_phy.o)
                0x0300ec70                drv_phy_cali_rtbl_load_def
 .text.drv_phy_cali_rtbl_reset
                0x0300eccc       0x5c icomlib.a(drv_phy.o)
                0x0300eccc                drv_phy_cali_rtbl_reset
 .text.drv_phy_cali_rtbl_set
                0x0300ed28       0x5c icomlib.a(drv_phy.o)
                0x0300ed28                drv_phy_cali_rtbl_set
 .text.drv_phy_cali_rtbl_export
                0x0300ed84        0x4 icomlib.a(drv_phy.o)
                0x0300ed84                drv_phy_cali_rtbl_export
 .text.drv_phy_init_cali
                0x0300ed88       0xc4 icomlib.a(drv_phy.o)
                0x0300ed88                drv_phy_init_cali
 .text.drv_phy_evm_tk
                0x0300ee4c       0x5c icomlib.a(drv_phy.o)
                0x0300ee4c                drv_phy_evm_tk
 .text.drv_phy_tone_tk
                0x0300eea8       0x38 icomlib.a(drv_phy.o)
                0x0300eea8                drv_phy_tone_tk
 .text          0x0300eee0        0x0 icomlib.a(drv_pktbuf_slow)
 .text.ssv6xxx_pbuf_dump_reg
                0x0300eee0      0x4d0 icomlib.a(drv_pktbuf_slow)
                0x0300eee0                ssv6xxx_pbuf_dump_reg
 .text          0x0300f3b0        0x0 icomlib.a(hash_alg.o)
 .text          0x0300f3b0        0x0 icomlib.a(hmac_md5.o)
 .text          0x0300f3b0        0x0 icomlib.a(hmac_sha1.o)
 .text          0x0300f3b0        0x0 icomlib.a(ieee80211_mgmt.)
 .text.process_thread_scan_channel_process
                0x0300f3b0       0xd8 icomlib.a(ieee80211_mgmt.)
 .text.process_thread_beacon_process
                0x0300f488      0x25c icomlib.a(ieee80211_mgmt.)
 .text.addAvailableIndex
                0x0300f6e4       0x3c icomlib.a(ieee80211_mgmt.)
                0x0300f6e4                addAvailableIndex
 .text.reset_AvailableIndex
                0x0300f720       0x14 icomlib.a(ieee80211_mgmt.)
                0x0300f720                reset_AvailableIndex
 .text.is_action
                0x0300f734       0x14 icomlib.a(ieee80211_mgmt.)
                0x0300f734                is_action
 .text.htinfo_detect
                0x0300f748       0x74 icomlib.a(ieee80211_mgmt.)
                0x0300f748                htinfo_detect
 .text.tx_probe_req
                0x0300f7bc      0x190 icomlib.a(ieee80211_mgmt.)
                0x0300f7bc                tx_probe_req
 .text.tx_authentication_req_seq1
                0x0300f94c      0x168 icomlib.a(ieee80211_mgmt.)
                0x0300f94c                tx_authentication_req_seq1
 .text.tx_authentication_req_seq3
                0x0300fab4      0x128 icomlib.a(ieee80211_mgmt.)
                0x0300fab4                tx_authentication_req_seq3
 .text.tx_deauthentication_req
                0x0300fbdc       0xcc icomlib.a(ieee80211_mgmt.)
                0x0300fbdc                tx_deauthentication_req
 .text.tx_association_req
                0x0300fca8      0x218 icomlib.a(ieee80211_mgmt.)
                0x0300fca8                tx_association_req
 .text.tx_deassociation_req
                0x0300fec0      0x110 icomlib.a(ieee80211_mgmt.)
                0x0300fec0                tx_deassociation_req
 .text.tx_action_BA_rsp
                0x0300ffd0       0xec icomlib.a(ieee80211_mgmt.)
                0x0300ffd0                tx_action_BA_rsp
 .text.rx_probe_rsp
                0x030100bc      0x378 icomlib.a(ieee80211_mgmt.)
                0x030100bc                rx_probe_rsp
 .text.rx_authentication_rsp
                0x03010434      0x1c0 icomlib.a(ieee80211_mgmt.)
                0x03010434                rx_authentication_rsp
 .text.rx_association_rsp
                0x030105f4       0x78 icomlib.a(ieee80211_mgmt.)
                0x030105f4                rx_association_rsp
 .text.rx_action_rsp
                0x0301066c       0x24 icomlib.a(ieee80211_mgmt.)
                0x0301066c                rx_action_rsp
 .text.rx_disassoc_rsp
                0x03010690       0x94 icomlib.a(ieee80211_mgmt.)
                0x03010690                rx_disassoc_rsp
 .text.rx_deauth_rsp
                0x03010724       0x94 icomlib.a(ieee80211_mgmt.)
                0x03010724                rx_deauth_rsp
 .text.calculateSignalLevel
                0x030107b8       0x44 icomlib.a(ieee80211_mgmt.)
                0x030107b8                calculateSignalLevel
 .text.startrecordAP
                0x030107fc       0x14 icomlib.a(ieee80211_mgmt.)
                0x030107fc                startrecordAP
 .text.stoprecordAP
                0x03010810       0x14 icomlib.a(ieee80211_mgmt.)
                0x03010810                stoprecordAP
 .text.removeAP_fromlist
                0x03010824       0xe0 icomlib.a(ieee80211_mgmt.)
                0x03010824                removeAP_fromlist
 .text.bss_mgmt_reboot
                0x03010904       0x60 icomlib.a(ieee80211_mgmt.)
                0x03010904                bss_mgmt_reboot
 .text.bss_mgmt_scan
                0x03010964       0x40 icomlib.a(ieee80211_mgmt.)
                0x03010964                bss_mgmt_scan
 .text.bss_mgmt_scan_custom
                0x030109a4       0x34 icomlib.a(ieee80211_mgmt.)
                0x030109a4                bss_mgmt_scan_custom
 .text.bss_mgmt_connect
                0x030109d8       0x78 icomlib.a(ieee80211_mgmt.)
                0x030109d8                bss_mgmt_connect
 .text.bss_mgmt_disconnect
                0x03010a50       0x68 icomlib.a(ieee80211_mgmt.)
                0x03010a50                bss_mgmt_disconnect
 .text.bss_mgmt_init
                0x03010ab8       0xd4 icomlib.a(ieee80211_mgmt.)
                0x03010ab8                bss_mgmt_init
 .text.startscanchannel
                0x03010b8c       0x1c icomlib.a(ieee80211_mgmt.)
                0x03010b8c                startscanchannel
 .text.stopscanchannel
                0x03010ba8       0x14 icomlib.a(ieee80211_mgmt.)
                0x03010ba8                stopscanchannel
 .text.recordAP
                0x03010bbc       0xc0 icomlib.a(ieee80211_mgmt.)
                0x03010bbc                recordAP
 .text.removeAP
                0x03010c7c       0xdc icomlib.a(ieee80211_mgmt.)
                0x03010c7c                removeAP
 .text.process_thread_bss_reconnect_process
                0x03010d58      0x554 icomlib.a(ieee80211_mgmt.)
 .text.bss_nslookup
                0x030112ac       0x3c icomlib.a(ieee80211_mgmt.)
                0x030112ac                bss_nslookup
 .text          0x030112e8        0x0 icomlib.a(irq.o)
 .text.irq_request
                0x030112e8      0x1c0 icomlib.a(irq.o)
                0x030112e8                irq_request
 .text.irq_init
                0x030114a8       0xb0 icomlib.a(irq.o)
                0x030114a8                irq_init
 .text          0x03011558        0x0 icomlib.a(netstack.o)
 .text.netstack_init
                0x03011558       0x38 icomlib.a(netstack.o)
                0x03011558                netstack_init
 .text          0x03011590        0x0 icomlib.a(sha1.o)
 .text          0x03011590        0x0 icomlib.a(wpa.o)
 .text.wpa_derive_ptk
                0x03011590       0xf4 icomlib.a(wpa.o)
 .text.init_wpa_ctx
                0x03011684       0x48 icomlib.a(wpa.o)
                0x03011684                init_wpa_ctx
 .text.init_AP_wpa_ctx
                0x030116cc       0xec icomlib.a(wpa.o)
                0x030116cc                init_AP_wpa_ctx
 .text.get_oui_subtype
                0x030117b8       0x50 icomlib.a(wpa.o)
                0x030117b8                get_oui_subtype
 .text.find_group_oui
                0x03011808       0x20 icomlib.a(wpa.o)
                0x03011808                find_group_oui
 .text.find_pairwise_oui_for_autoScan
                0x03011828       0x80 icomlib.a(wpa.o)
                0x03011828                find_pairwise_oui_for_autoScan
 .text.find_pairwise_oui
                0x030118a8       0xf0 icomlib.a(wpa.o)
                0x030118a8                find_pairwise_oui
 .text.find_akm_oui
                0x03011998       0xe4 icomlib.a(wpa.o)
                0x03011998                find_akm_oui
 .text.sec80211_detect
                0x03011a7c      0x14c icomlib.a(wpa.o)
                0x03011a7c                sec80211_detect
 .text.sec80211_detect_for_autoScan
                0x03011bc8       0xe4 icomlib.a(wpa.o)
                0x03011bc8                sec80211_detect_for_autoScan
 .text.pack_wpa2
                0x03011cac       0x40 icomlib.a(wpa.o)
                0x03011cac                pack_wpa2
 .text.cal_mic  0x03011cec       0x68 icomlib.a(wpa.o)
                0x03011cec                cal_mic
 .text.check_mic
                0x03011d54       0x74 icomlib.a(wpa.o)
                0x03011d54                check_mic
 .text.decrypt_keydata
                0x03011dc8       0xb4 icomlib.a(wpa.o)
                0x03011dc8                decrypt_keydata
 .text.install_key
                0x03011e7c       0x9c icomlib.a(wpa.o)
                0x03011e7c                install_key
 .text.InitPacketbuffer
                0x03011f18       0x6c icomlib.a(wpa.o)
                0x03011f18                InitPacketbuffer
 .text.tx_wpa_2_of_4
                0x03011f84      0x110 icomlib.a(wpa.o)
                0x03011f84                tx_wpa_2_of_4
 .text.rx_wpa_1_of_4
                0x03012094       0x5c icomlib.a(wpa.o)
                0x03012094                rx_wpa_1_of_4
 .text.tx_wpa_4_of_4
                0x030120f0      0x140 icomlib.a(wpa.o)
                0x030120f0                tx_wpa_4_of_4
 .text.rx_wpa_3_of_4
                0x03012230      0x1ac icomlib.a(wpa.o)
                0x03012230                rx_wpa_3_of_4
 .text.rx_wpa_1_of_2
                0x030123dc      0x1b8 icomlib.a(wpa.o)
                0x030123dc                rx_wpa_1_of_2
 .text.tx_wpa_1_of_4
                0x03012594       0xcc icomlib.a(wpa.o)
                0x03012594                tx_wpa_1_of_4
 .text.rx_wpa_2_of_4
                0x03012660      0x1d8 icomlib.a(wpa.o)
                0x03012660                rx_wpa_2_of_4
 .text.tx_wpa_3_of_4
                0x03012838      0x1c8 icomlib.a(wpa.o)
                0x03012838                tx_wpa_3_of_4
 .text          0x03012a00        0x0 icomlib.a(sys_status_api.)
 .text.get_local_mac
                0x03012a00       0x38 icomlib.a(sys_status_api.)
                0x03012a00                get_local_mac
 .text.get_connectAP_mac
                0x03012a38       0x38 icomlib.a(sys_status_api.)
                0x03012a38                get_connectAP_mac
 .text.get_wifi_connect_status
                0x03012a70       0x10 icomlib.a(sys_status_api.)
                0x03012a70                get_wifi_connect_status
 .text.get_wifi_connected
                0x03012a80       0x10 icomlib.a(sys_status_api.)
                0x03012a80                get_wifi_connected
 .text.get_ap_lsit_total_num
                0x03012a90        0x4 icomlib.a(sys_status_api.)
                0x03012a90                get_ap_lsit_total_num
 .text.set_nslookup
                0x03012a94        0x4 icomlib.a(sys_status_api.)
                0x03012a94                set_nslookup
 .text.set_slink_ready_and_ack
                0x03012a98        0x4 icomlib.a(sys_status_api.)
                0x03012a98                set_slink_ready_and_ack
 .text          0x03012a9c        0x0 icomlib.a(arc4.o)
 .text          0x03012a9c        0x0 icomlib.a(md5.o)
 .text.Encode   0x03012a9c       0x48 icomlib.a(md5.o)
 .text.MD5Transform
                0x03012ae4      0xa54 icomlib.a(md5.o)
 .text          0x03013538        0x0 icomlib.a(wep.o)
 .text.crc32_le.constprop.0
                0x03013538       0x50 icomlib.a(wep.o)
 .text.getAuthChallengeTextLen
                0x03013588       0x10 icomlib.a(wep.o)
                0x03013588                getAuthChallengeTextLen
 .text.getAuthAlgNum
                0x03013598       0x10 icomlib.a(wep.o)
                0x03013598                getAuthAlgNum
 .text.getAuthSeqNum
                0x030135a8       0x10 icomlib.a(wep.o)
                0x030135a8                getAuthSeqNum
 .text.getAuthStatus
                0x030135b8       0x10 icomlib.a(wep.o)
                0x030135b8                getAuthStatus
 .text.SetAuthChallengeText
                0x030135c8       0x30 icomlib.a(wep.o)
                0x030135c8                SetAuthChallengeText
 .text.SetAuthChallengeTextLen
                0x030135f8       0x18 icomlib.a(wep.o)
                0x030135f8                SetAuthChallengeTextLen
 .text.SetAuthAlgNum
                0x03013610       0x10 icomlib.a(wep.o)
                0x03013610                SetAuthAlgNum
 .text.setAuthSeqNum
                0x03013620       0x10 icomlib.a(wep.o)
                0x03013620                setAuthSeqNum
 .text.setAuthStatus
                0x03013630       0x10 icomlib.a(wep.o)
                0x03013630                setAuthStatus
 .text.setKeyAndIV
                0x03013640       0x48 icomlib.a(wep.o)
                0x03013640                setKeyAndIV
 .text.saveAftEncData
                0x03013688       0x84 icomlib.a(wep.o)
                0x03013688                saveAftEncData
 .text.setBefEncData
                0x0301370c       0x84 icomlib.a(wep.o)
                0x0301370c                setBefEncData
 .text.getEncDecData
                0x03013790       0xbc icomlib.a(wep.o)
                0x03013790                getEncDecData
 .text.encDecSrcData
                0x0301384c       0xa4 icomlib.a(wep.o)
                0x0301384c                encDecSrcData
 .text.initKeyAndIV
                0x030138f0       0x2c icomlib.a(wep.o)
                0x030138f0                initKeyAndIV
 .text.randIV   0x0301391c       0x3c icomlib.a(wep.o)
                0x0301391c                randIV
 .text.savePassToTotalKey
                0x03013958      0x180 icomlib.a(wep.o)
                0x03013958                savePassToTotalKey
 .text.initWEP  0x03013ad8       0x80 icomlib.a(wep.o)
                0x03013ad8                initWEP
 .text.clearParaWithWEP
                0x03013b58       0x24 icomlib.a(wep.o)
                0x03013b58                clearParaWithWEP
 .text          0x03013b7c        0x0 icomlib.a(autostart.o)
 .text.autostart_start
                0x03013b7c       0x24 icomlib.a(autostart.o)
                0x03013b7c                autostart_start
 .text.autostart_exit
                0x03013ba0       0x20 icomlib.a(autostart.o)
                0x03013ba0                autostart_exit
 .text          0x03013bc0        0x0 icomlib.a(shell-ping.o)
 .text.process_thread_shell_ping_process
                0x03013bc0      0x250 icomlib.a(shell-ping.o)
 .text.ping_start
                0x03013e10       0x34 icomlib.a(shell-ping.o)
                0x03013e10                ping_start
 .text          0x03013e44        0x0 icomlib.a(random.o)
 .text.random_init
                0x03013e44        0x4 icomlib.a(random.o)
                0x03013e44                random_init
 .text.random_rand
                0x03013e48       0x14 icomlib.a(random.o)
                0x03013e48                random_rand
 .text          0x03013e5c        0x0 icomlib.a(airkiss.o)
 .text.airKissResult
                0x03013e5c       0xd4 icomlib.a(airkiss.o)
                0x03013e5c                airKissResult
 .text.airKissPrintVersion
                0x03013f30       0x1c icomlib.a(airkiss.o)
                0x03013f30                airKissPrintVersion
 .text.airKissInit
                0x03013f4c       0x20 icomlib.a(airkiss.o)
                0x03013f4c                airKissInit
 .text.SetAirkissStart
                0x03013f6c       0x40 icomlib.a(airkiss.o)
                0x03013f6c                SetAirkissStart
 .text.clearAirKissBuf
                0x03013fac       0x30 icomlib.a(airkiss.o)
                0x03013fac                clearAirKissBuf
 .text.resetAirkiss
                0x03013fdc       0x24 icomlib.a(airkiss.o)
                0x03013fdc                resetAirkiss
 .text.process_thread_airkiss_conf_process
                0x03014000      0x12c icomlib.a(airkiss.o)
 .text.initAirKiss
                0x0301412c       0x50 icomlib.a(airkiss.o)
                0x0301412c                initAirKiss
 .text          0x0301417c        0x0 icomlib.a(bsp_info.o)
 .text.bsp_get_boot_info
                0x0301417c       0xbc icomlib.a(bsp_info.o)
                0x0301417c                bsp_get_boot_info
 .text.get_boot_stack_fence
                0x03014238       0x3c icomlib.a(bsp_info.o)
                0x03014238                get_boot_stack_fence
 .text.bsp_get_mp_info
                0x03014274      0x534 icomlib.a(bsp_info.o)
                0x03014274                bsp_get_mp_info
 .text.bsp_get_define_info
                0x030147a8       0xc4 icomlib.a(bsp_info.o)
                0x030147a8                bsp_get_define_info
 .text.bsp_get_config_info
                0x0301486c      0x374 icomlib.a(bsp_info.o)
                0x0301486c                bsp_get_config_info
 .text          0x03014be0        0x0 icomlib.a(cfs-coffee.o)
 .text.load_file
                0x03014be0       0xa8 icomlib.a(cfs-coffee.o)
 .text.read_header
                0x03014c88       0x18 icomlib.a(cfs-coffee.o)
 .text.file_end
                0x03014ca0       0x94 icomlib.a(cfs-coffee.o)
 .text.write_header
                0x03014d34       0x24 icomlib.a(cfs-coffee.o)
 .text.next_file.isra.0
                0x03014d58       0x2c icomlib.a(cfs-coffee.o)
 .text.find_file
                0x03014d84       0xec icomlib.a(cfs-coffee.o)
 .text.find_contiguous_pages
                0x03014e70       0xe4 icomlib.a(cfs-coffee.o)
 .text.remove_by_page.isra.1
                0x03014f54      0x118 icomlib.a(cfs-coffee.o)
 .text.reserve.constprop.3
                0x0301506c      0x354 icomlib.a(cfs-coffee.o)
 .text.cfs_open
                0x030153c0       0xf0 icomlib.a(cfs-coffee.o)
                0x030153c0                cfs_open
 .text.cfs_close
                0x030154b0       0x44 icomlib.a(cfs-coffee.o)
                0x030154b0                cfs_close
 .text.cfs_seek
                0x030154f4       0x94 icomlib.a(cfs-coffee.o)
                0x030154f4                cfs_seek
 .text.cfs_remove
                0x03015588       0x34 icomlib.a(cfs-coffee.o)
                0x03015588                cfs_remove
 .text.cfs_read
                0x030155bc       0x9c icomlib.a(cfs-coffee.o)
                0x030155bc                cfs_read
 .text.cfs_write
                0x03015658      0x298 icomlib.a(cfs-coffee.o)
                0x03015658                cfs_write
 .text.cfs_opendir
                0x030158f0       0x18 icomlib.a(cfs-coffee.o)
                0x030158f0                cfs_opendir
 .text.cfs_readdir
                0x03015908       0xe4 icomlib.a(cfs-coffee.o)
                0x03015908                cfs_readdir
 .text.cfs_closedir
                0x030159ec        0x4 icomlib.a(cfs-coffee.o)
                0x030159ec                cfs_closedir
 .text.cfs_coffee_reserve
                0x030159f0       0x2c icomlib.a(cfs-coffee.o)
                0x030159f0                cfs_coffee_reserve
 .text.cfs_coffee_configure_log
                0x03015a1c       0x9c icomlib.a(cfs-coffee.o)
                0x03015a1c                cfs_coffee_configure_log
 .text.get_cabrio_fs_table_marker
                0x03015ab8       0x40 icomlib.a(cfs-coffee.o)
                0x03015ab8                get_cabrio_fs_table_marker
 .text.cfs_dbg_flash_dump_data
                0x03015af8        0x4 icomlib.a(cfs-coffee.o)
                0x03015af8                cfs_dbg_flash_dump_data
 .text.set_cabrio_fs_table_marker
                0x03015afc       0x14 icomlib.a(cfs-coffee.o)
                0x03015afc                set_cabrio_fs_table_marker
 .text.cfs_coffee_format
                0x03015b10       0x50 icomlib.a(cfs-coffee.o)
                0x03015b10                cfs_coffee_format
 .text.cfs_coffee_get_protected_mem
                0x03015b60       0x14 icomlib.a(cfs-coffee.o)
                0x03015b60                cfs_coffee_get_protected_mem
 .text          0x03015b74        0x0 icomlib.a(console.o)
 .text.console_init
                0x03015b74       0x5c icomlib.a(console.o)
                0x03015b74                console_init
 .text          0x03015bd0        0x0 icomlib.a(drv_gpio.o)
 .text.get_PAD_Addr
                0x03015bd0       0x28 icomlib.a(drv_gpio.o)
                0x03015bd0                get_PAD_Addr
 .text.drv_gpio_Output
                0x03015bf8      0x194 icomlib.a(drv_gpio.o)
                0x03015bf8                drv_gpio_Output
 .text.drv_gpio_Input
                0x03015d8c       0x88 icomlib.a(drv_gpio.o)
                0x03015d8c                drv_gpio_Input
 .text.drv_gpio_write
                0x03015e14       0x40 icomlib.a(drv_gpio.o)
                0x03015e14                drv_gpio_write
 .text.drv_gpio_read
                0x03015e54       0x34 icomlib.a(drv_gpio.o)
                0x03015e54                drv_gpio_read
 .text.drv_gpio_set_irq
                0x03015e88       0xfc icomlib.a(drv_gpio.o)
                0x03015e88                drv_gpio_set_irq
 .text.drv_gpio_func
                0x03015f84      0x1e8 icomlib.a(drv_gpio.o)
                0x03015f84                drv_gpio_func
 .text          0x0301616c        0x0 icomlib.a(drv_pmu.o)
 .text.drv_pmu_setwake_cnt
                0x0301616c       0x44 icomlib.a(drv_pmu.o)
                0x0301616c                drv_pmu_setwake_cnt
 .text.drv_pmu_tu0
                0x030161b0       0x60 icomlib.a(drv_pmu.o)
                0x030161b0                drv_pmu_tu0
 .text.drv_pmu_tm0
                0x03016210       0x60 icomlib.a(drv_pmu.o)
                0x03016210                drv_pmu_tm0
 .text.drv_pmu_sleep
                0x03016270      0x260 icomlib.a(drv_pmu.o)
                0x03016270                drv_pmu_sleep
 .text.drv_pmu_init
                0x030164d0       0x40 icomlib.a(drv_pmu.o)
                0x030164d0                drv_pmu_init
 .text.drv_pmu_chk
                0x03016510       0x18 icomlib.a(drv_pmu.o)
                0x03016510                drv_pmu_chk
 .text.drv_pmu_check_interupt_event
                0x03016528       0x20 icomlib.a(drv_pmu.o)
                0x03016528                drv_pmu_check_interupt_event
 .text          0x03016548        0x0 icomlib.a(drv_wdog.o)
 .text.drv_wdog_reboot
                0x03016548       0x48 icomlib.a(drv_wdog.o)
                0x03016548                drv_wdog_reboot
 .text.drv_wdog_period_5000ms
                0x03016590       0x50 icomlib.a(drv_wdog.o)
                0x03016590                drv_wdog_period_5000ms
 .text.drv_wdog_period_10000ms
                0x030165e0       0x50 icomlib.a(drv_wdog.o)
                0x030165e0                drv_wdog_period_10000ms
 .text.drv_wdog_period_cutommed
                0x03016630       0x48 icomlib.a(drv_wdog.o)
                0x03016630                drv_wdog_period_cutommed
 .text.drv_wdog_stop
                0x03016678       0x40 icomlib.a(drv_wdog.o)
                0x03016678                drv_wdog_stop
 .text          0x030166b8        0x0 icomlib.a(fence.o)
 .text.do_fence
                0x030166b8       0x1c icomlib.a(fence.o)
                0x030166b8                do_fence
 .text.fence_init
                0x030166d4       0x28 icomlib.a(fence.o)
                0x030166d4                fence_init
 .text          0x030166fc        0x0 icomlib.a(smartComm.o)
 .text.set_slink_ready_ack
                0x030166fc       0x10 icomlib.a(smartComm.o)
                0x030166fc                set_slink_ready_ack
 .text.enableSmartHwFilter
                0x0301670c      0x220 icomlib.a(smartComm.o)
                0x0301670c                enableSmartHwFilter
 .text.disableSmartHwFilter
                0x0301692c      0x248 icomlib.a(smartComm.o)
                0x0301692c                disableSmartHwFilter
 .text.setSmartCmdStatus
                0x03016b74       0x1c icomlib.a(smartComm.o)
                0x03016b74                setSmartCmdStatus
 .text.disableSendToPhone
                0x03016b90       0x14 icomlib.a(smartComm.o)
                0x03016b90                disableSendToPhone
 .text.getSendToPhoneStatus
                0x03016ba4       0x10 icomlib.a(smartComm.o)
                0x03016ba4                getSendToPhoneStatus
 .text.enableSendToPhoneData
                0x03016bb4       0x14 icomlib.a(smartComm.o)
                0x03016bb4                enableSendToPhoneData
 .text.disableSendToPhoneData
                0x03016bc8       0x14 icomlib.a(smartComm.o)
                0x03016bc8                disableSendToPhoneData
 .text.setSmartPhoneIP
                0x03016bdc       0x18 icomlib.a(smartComm.o)
                0x03016bdc                setSmartPhoneIP
 .text.getPhoneMac
                0x03016bf4       0x10 icomlib.a(smartComm.o)
                0x03016bf4                getPhoneMac
 .text.setPhoneMAC
                0x03016c04       0x18 icomlib.a(smartComm.o)
                0x03016c04                setPhoneMAC
 .text.setPhoneData
                0x03016c1c       0x20 icomlib.a(smartComm.o)
                0x03016c1c                setPhoneData
 .text.sendMessageToPhone
                0x03016c3c      0x124 icomlib.a(smartComm.o)
                0x03016c3c                sendMessageToPhone
 .text.process_thread_smart_conf_ack
                0x03016d60       0x64 icomlib.a(smartComm.o)
 .text.smartSetIfconfigAndConnect
                0x03016dc4       0x38 icomlib.a(smartComm.o)
                0x03016dc4                smartSetIfconfigAndConnect
 .text.checkAndSetAPMac
                0x03016dfc      0x130 icomlib.a(smartComm.o)
                0x03016dfc                checkAndSetAPMac
 .text          0x03016f2c        0x0 icomlib.a(smartConf.o)
 .text.clearSmartLinkBuf
                0x03016f2c       0x74 icomlib.a(smartConf.o)
                0x03016f2c                clearSmartLinkBuf
 .text.clearAllSmartLinkBuf
                0x03016fa0       0x48 icomlib.a(smartConf.o)
                0x03016fa0                clearAllSmartLinkBuf
 .text.resetSmartLink
                0x03016fe8       0x58 icomlib.a(smartConf.o)
                0x03016fe8                resetSmartLink
 .text.process_thread_smart_conf_process
                0x03017040      0x17c icomlib.a(smartConf.o)
 .text.initSmartLink
                0x030171bc       0xe4 icomlib.a(smartConf.o)
                0x030171bc                initSmartLink
 .text          0x030172a0        0x0 icomlib.a(userSmart.o)
 .text.SET_FILTER_TABLE0
                0x030172a0       0x68 icomlib.a(userSmart.o)
                0x030172a0                SET_FILTER_TABLE0
 .text.SET_FILTER_TABLE1
                0x03017308       0x88 icomlib.a(userSmart.o)
                0x03017308                SET_FILTER_TABLE1
 .text.SET_FILTER_TABLE2
                0x03017390       0xa0 icomlib.a(userSmart.o)
                0x03017390                SET_FILTER_TABLE2
 .text.SET_FILTER_TABLE3
                0x03017430       0xc4 icomlib.a(userSmart.o)
                0x03017430                SET_FILTER_TABLE3
 .text.rejectAllFrame
                0x030174f4      0x20c icomlib.a(userSmart.o)
                0x030174f4                rejectAllFrame
 .text.AutoScanAP
                0x03017700        0x4 icomlib.a(userSmart.o)
                0x03017700                AutoScanAP
 .text.userSmartSetChannel
                0x03017704       0x38 icomlib.a(userSmart.o)
                0x03017704                userSmartSetChannel
 .text.SetUserReceFilter
                0x0301773c       0x48 icomlib.a(userSmart.o)
                0x0301773c                SetUserReceFilter
 .text.EnableUserReceFilter
                0x03017784       0xa4 icomlib.a(userSmart.o)
                0x03017784                EnableUserReceFilter
 .text.DisableUserReceFilter
                0x03017828       0x3c icomlib.a(userSmart.o)
                0x03017828                DisableUserReceFilter
 .text.SetCallBackFunction
                0x03017864       0x10 icomlib.a(userSmart.o)
                0x03017864                SetCallBackFunction
 .text.EnableCallBackFrame
                0x03017874       0x38 icomlib.a(userSmart.o)
                0x03017874                EnableCallBackFrame
 .text.DisableCallBackFrame
                0x030178ac       0x18 icomlib.a(userSmart.o)
                0x030178ac                DisableCallBackFrame
 .text.EnableUserSmartMode
                0x030178c4       0xa8 icomlib.a(userSmart.o)
                0x030178c4                EnableUserSmartMode
 .text.DisableUserSmartMode
                0x0301796c      0x11c icomlib.a(userSmart.o)
                0x0301796c                DisableUserSmartMode
 .text          0x03017a88        0x0 icomlib.a(ieee80211_mac.o)
 .text.off      0x03017a88       0x18 icomlib.a(ieee80211_mac.o)
 .text.channel_check_interval
                0x03017aa0        0x8 icomlib.a(ieee80211_mac.o)
 .text.init     0x03017aa8       0x14 icomlib.a(ieee80211_mac.o)
 .text.on       0x03017abc       0x1c icomlib.a(ieee80211_mac.o)
 .text.dump_data
                0x03017ad8       0x64 icomlib.a(ieee80211_mac.o)
                0x03017ad8                dump_data
 .text.data_decryt
                0x03017b3c       0x80 icomlib.a(ieee80211_mac.o)
                0x03017b3c                data_decryt
 .text          0x03017bbc        0x0 icomlib.a(drv_fence.o)
 .text.hwfence_init
                0x03017bbc       0x1c icomlib.a(drv_fence.o)
                0x03017bbc                hwfence_init
 .text.hwfence_start
                0x03017bd8       0x14 icomlib.a(drv_fence.o)
                0x03017bd8                hwfence_start
 .text          0x03017bec        0x0 icomlib.a(drv_mbox.o)
 .text.drv_mailbox_cpu_pri_ff
                0x03017bec       0x30 icomlib.a(drv_mbox.o)
                0x03017bec                drv_mailbox_cpu_pri_ff
 .text          0x03017c1c        0x0 icomlib.a(EAPOL.o)
 .text.rx_process_wpa
                0x03017c1c      0x190 icomlib.a(EAPOL.o)
                0x03017c1c                rx_process_wpa
 .text.rx_process_eapol
                0x03017dac       0x58 icomlib.a(EAPOL.o)
                0x03017dac                rx_process_eapol
 .text.tx_eapol_start_req
                0x03017e04        0x4 icomlib.a(EAPOL.o)
                0x03017e04                tx_eapol_start_req
 .text          0x03017e08        0x0 icomapps.a(atcmd.o)
 .text.process_thread_poll_tx_process
                0x03017e08       0xa0 icomapps.a(atcmd.o)
 .text.process_thread_nslookup_process
                0x03017ea8       0xb4 icomapps.a(atcmd.o)
 .text.allocate_buffer_in
                0x03017f5c       0x40 icomapps.a(atcmd.o)
                0x03017f5c                allocate_buffer_in
 .text.process_thread_tcp_connect_process
                0x03017f9c      0x260 icomapps.a(atcmd.o)
 .text.release_buffer_in
                0x030181fc       0x30 icomapps.a(atcmd.o)
                0x030181fc                release_buffer_in
 .text.allocate_buffer_out
                0x0301822c       0x40 icomapps.a(atcmd.o)
                0x0301822c                allocate_buffer_out
 .text.process_thread_http_request_process
                0x0301826c      0x338 icomapps.a(atcmd.o)
 .text.release_buffer_out
                0x030185a4       0x30 icomapps.a(atcmd.o)
                0x030185a4                release_buffer_out
 .text.parseBuff2Param
                0x030185d4       0x94 icomapps.a(atcmd.o)
                0x030185d4                parseBuff2Param
 .text.At_EnableSmartReboot
                0x03018668       0xa0 icomapps.a(atcmd.o)
                0x03018668                At_EnableSmartReboot
 .text.At_EnableSmartMode
                0x03018708       0x8c icomapps.a(atcmd.o)
                0x03018708                At_EnableSmartMode
 .text.showDataRate
                0x03018794       0x1c icomapps.a(atcmd.o)
                0x03018794                showDataRate
 .text.securityString
                0x030187b0       0x1c icomapps.a(atcmd.o)
                0x030187b0                securityString
 .text.securitySubString
                0x030187cc       0x1c icomapps.a(atcmd.o)
                0x030187cc                securitySubString
 .text.At_Reboot
                0x030187e8       0x1c icomapps.a(atcmd.o)
                0x030187e8                At_Reboot
 .text.At_WatchDOG_Start
                0x03018804       0x30 icomapps.a(atcmd.o)
                0x03018804                At_WatchDOG_Start
 .text.At_WatchDOG_Stop
                0x03018834       0x30 icomapps.a(atcmd.o)
                0x03018834                At_WatchDOG_Stop
 .text.At_ProcessQueKill
                0x03018864       0x60 icomapps.a(atcmd.o)
                0x03018864                At_ProcessQueKill
 .text.At_ProcessKill
                0x030188c4       0x60 icomapps.a(atcmd.o)
                0x030188c4                At_ProcessKill
 .text.At_ProcessAllQueDump
                0x03018924       0x34 icomapps.a(atcmd.o)
                0x03018924                At_ProcessAllQueDump
 .text.At_ProcessAllDump
                0x03018958       0x34 icomapps.a(atcmd.o)
                0x03018958                At_ProcessAllDump
 .text.At_ShowNtpTime
                0x0301898c       0x20 icomapps.a(atcmd.o)
                0x0301898c                At_ShowNtpTime
 .text.At_ShowAllAP
                0x030189ac       0xd8 icomapps.a(atcmd.o)
                0x030189ac                At_ShowAllAP
 .text.At_ShowConnectAP
                0x03018a84      0x140 icomapps.a(atcmd.o)
                0x03018a84                At_ShowConnectAP
 .text.At_SetGpio
                0x03018bc4       0xdc icomapps.a(atcmd.o)
                0x03018bc4                At_SetGpio
 .text.At_WriteGpio
                0x03018ca0       0xbc icomapps.a(atcmd.o)
                0x03018ca0                At_WriteGpio
 .text.At_ReadGpio
                0x03018d5c       0x9c icomapps.a(atcmd.o)
                0x03018d5c                At_ReadGpio
 .text.At_ParserRecv
                0x03018df8       0x4c icomapps.a(atcmd.o)
                0x03018df8                At_ParserRecv
 .text.At_PowerOn
                0x03018e44       0x38 icomapps.a(atcmd.o)
                0x03018e44                At_PowerOn
 .text.At_RX    0x03018e7c       0x38 icomapps.a(atcmd.o)
                0x03018e7c                At_RX
 .text.At_TX    0x03018eb4       0x4c icomapps.a(atcmd.o)
                0x03018eb4                At_TX
 .text.At_PowerSaving
                0x03018f00       0xdc icomapps.a(atcmd.o)
                0x03018f00                At_PowerSaving
 .text.At_TCPChange_Timeout
                0x03018fdc       0x98 icomapps.a(atcmd.o)
                0x03018fdc                At_TCPChange_Timeout
 .text.At_TCPConnect
                0x03019074      0x150 icomapps.a(atcmd.o)
                0x03019074                At_TCPConnect
 .text.At_TCPSend
                0x030191c4      0x108 icomapps.a(atcmd.o)
                0x030191c4                At_TCPSend
 .text.At_TCPDisconnect
                0x030192cc       0x48 icomapps.a(atcmd.o)
                0x030192cc                At_TCPDisconnect
 .text.At_TCPListen
                0x03019314       0xd0 icomapps.a(atcmd.o)
                0x03019314                At_TCPListen
 .text.At_TCPUnlisten
                0x030193e4       0xb4 icomapps.a(atcmd.o)
                0x030193e4                At_TCPUnlisten
 .text.At_UDPCreate
                0x03019498       0xd4 icomapps.a(atcmd.o)
                0x03019498                At_UDPCreate
 .text.At_UDPSend
                0x0301956c      0x124 icomapps.a(atcmd.o)
                0x0301956c                At_UDPSend
 .text.At_UDPClose
                0x03019690       0x6c icomapps.a(atcmd.o)
                0x03019690                At_UDPClose
 .text.At_HTTPTest
                0x030196fc      0x184 icomapps.a(atcmd.o)
                0x030196fc                At_HTTPTest
 .text.At_HTTPTestStop
                0x03019880       0x14 icomapps.a(atcmd.o)
                0x03019880                At_HTTPTestStop
 .text.At_NSLookup
                0x03019894       0x58 icomapps.a(atcmd.o)
                0x03019894                At_NSLookup
 .text.At_SET_AP_SSID
                0x030198ec       0x58 icomapps.a(atcmd.o)
                0x030198ec                At_SET_AP_SSID
 .text.At_SET_AUTO_CONNECT
                0x03019944       0x78 icomapps.a(atcmd.o)
                0x03019944                At_SET_AUTO_CONNECT
 .text.At_SAVE_CONFIG
                0x030199bc       0x34 icomapps.a(atcmd.o)
                0x030199bc                At_SAVE_CONFIG
 .text.At_Clean_Lists
                0x030199f0       0x18 icomapps.a(atcmd.o)
                0x030199f0                At_Clean_Lists
 .text.At_AP    0x03019a08       0x1c icomapps.a(atcmd.o)
                0x03019a08                At_AP
 .text.At_SET_APCONFIG
                0x03019a24       0xac icomapps.a(atcmd.o)
                0x03019a24                At_SET_APCONFIG
 .text.At_AP_EXIT
                0x03019ad0       0x1c icomapps.a(atcmd.o)
                0x03019ad0                At_AP_EXIT
 .text.At_TestFlashErase
                0x03019aec       0xc8 icomapps.a(atcmd.o)
                0x03019aec                At_TestFlashErase
 .text.At_TestFlashWrite
                0x03019bb4       0xb8 icomapps.a(atcmd.o)
                0x03019bb4                At_TestFlashWrite
 .text.At_BenchFlashRead
                0x03019c6c      0x10c icomapps.a(atcmd.o)
                0x03019c6c                At_BenchFlashRead
 .text.At_BenchFlashWrite
                0x03019d78      0x114 icomapps.a(atcmd.o)
                0x03019d78                At_BenchFlashWrite
 .text.At_TestFlashRead
                0x03019e8c       0xa4 icomapps.a(atcmd.o)
                0x03019e8c                At_TestFlashRead
 .text.At_ParserInd
                0x03019f30       0xc0 icomapps.a(atcmd.o)
                0x03019f30                At_ParserInd
 .text.At_Parser
                0x03019ff0      0xc58 icomapps.a(atcmd.o)
                0x03019ff0                At_Parser
 .text          0x0301ac48        0x0 icomapps.a(socket_app.o)
 .text.process_thread_discover_process
                0x0301ac48      0x130 icomapps.a(socket_app.o)
 .text.otaProcessDisable
                0x0301ad78       0x14 icomapps.a(socket_app.o)
                0x0301ad78                otaProcessDisable
 .text.setRemoteMAC
                0x0301ad8c       0x48 icomapps.a(socket_app.o)
                0x0301ad8c                setRemoteMAC
 .text.setRrmoteIpAddress
                0x0301add4       0x1c icomapps.a(socket_app.o)
                0x0301add4                setRrmoteIpAddress
 .text.getCmdNum
                0x0301adf0       0x88 icomapps.a(socket_app.o)
                0x0301adf0                getCmdNum
 .text.smartTcpSend
                0x0301ae78       0x50 icomapps.a(socket_app.o)
                0x0301ae78                smartTcpSend
 .text.smartTcpConnect
                0x0301aec8       0x74 icomapps.a(socket_app.o)
                0x0301aec8                smartTcpConnect
 .text.smartTcpDisConnect
                0x0301af3c       0x38 icomapps.a(socket_app.o)
                0x0301af3c                smartTcpDisConnect
 .text.process_thread_tcp_client_smartProcess
                0x0301af74      0x1ac icomapps.a(socket_app.o)
 .text.process_thread_tcp_smartlink_process
                0x0301b120      0x1e4 icomapps.a(socket_app.o)
 .text.appUdpCreate
                0x0301b304       0x48 icomapps.a(socket_app.o)
                0x0301b304                appUdpCreate
 .text.appUdpSend
                0x0301b34c       0x40 icomapps.a(socket_app.o)
                0x0301b34c                appUdpSend
 .text.appUdpClose
                0x0301b38c       0x2c icomapps.a(socket_app.o)
                0x0301b38c                appUdpClose
 .text.checkCmdAndSendData
                0x0301b3b8      0x1f8 icomapps.a(socket_app.o)
                0x0301b3b8                checkCmdAndSendData
 .text.process_thread_udp_server_discoverProcess
                0x0301b5b0      0x170 icomapps.a(socket_app.o)
 .text          0x0301b720        0x0 icomapps.a(soft_ap_init.o)
 .text.softap_combine_ssid_mac
                0x0301b720       0x5c icomapps.a(soft_ap_init.o)
                0x0301b720                softap_combine_ssid_mac
 .text.softap_dump_dhcp_setting
                0x0301b77c       0x88 icomapps.a(soft_ap_init.o)
                0x0301b77c                softap_dump_dhcp_setting
 .text.softap_dhcp_init
                0x0301b804      0x130 icomapps.a(soft_ap_init.o)
                0x0301b804                softap_dhcp_init
 .text.softap_init_ex
                0x0301b934       0xe8 icomapps.a(soft_ap_init.o)
                0x0301b934                softap_init_ex
 .text.softap_init
                0x0301ba1c       0x10 icomapps.a(soft_ap_init.o)
                0x0301ba1c                softap_init
 .text          0x0301ba2c        0x0 icomapps.a(tcp_server_demo)
 .text.process_thread_tcpServerDemo_process
                0x0301ba2c      0x1ec icomapps.a(tcp_server_demo)
 .text.SetPWM   0x0301bc18       0x38 icomapps.a(tcp_server_demo)
                0x0301bc18                SetPWM
 .text.EnableLED
                0x0301bc50       0x44 icomapps.a(tcp_server_demo)
                0x0301bc50                EnableLED
 .text.DisableLED
                0x0301bc94       0x40 icomapps.a(tcp_server_demo)
                0x0301bc94                DisableLED
 .text.process_thread_led_blink_process
                0x0301bcd4       0xd4 icomapps.a(tcp_server_demo)
 .text.appTcpSend
                0x0301bda8       0x50 icomapps.a(tcp_server_demo)
                0x0301bda8                appTcpSend
 .text.TCPDataParser
                0x0301bdf8      0x104 icomapps.a(tcp_server_demo)
                0x0301bdf8                TCPDataParser
 .text.process_thread_tcp_server_demoProcess
                0x0301befc      0x188 icomapps.a(tcp_server_demo)
 .text          0x0301c084        0x0 icomapps.a(wifi_uart_demo.)
 .text.process_thread_wifiUartDemo_process
                0x0301c084      0x13c icomapps.a(wifi_uart_demo.)
 .text.process_thread_tcp_server_wifiUartProcess
                0x0301c1c0      0x1c4 icomapps.a(wifi_uart_demo.)
 .text.sampleAppTCPSend
                0x0301c384       0x84 icomapps.a(wifi_uart_demo.)
                0x0301c384                sampleAppTCPSend
 .text.sampleDataUartRead
                0x0301c408       0x8c icomapps.a(wifi_uart_demo.)
                0x0301c408                sampleDataUartRead
 .text          0x0301c494        0x0 icomapps.a(ota_api.o)
 .text.process_thread_auto_reboot_process
                0x0301c494       0xd8 icomapps.a(ota_api.o)
 .text.cal_ota_checksum
                0x0301c56c       0x5c icomapps.a(ota_api.o)
                0x0301c56c                cal_ota_checksum
 .text.downloadFinish
                0x0301c5c8      0x1c8 icomapps.a(ota_api.o)
                0x0301c5c8                downloadFinish
 .text.filesave_from_phone
                0x0301c790      0x174 icomapps.a(ota_api.o)
                0x0301c790                filesave_from_phone
 .text.OtaTcpConnect
                0x0301c904       0x54 icomapps.a(ota_api.o)
                0x0301c904                OtaTcpConnect
 .text.process_thread_tcp_client_otaProcess
                0x0301c958      0x2cc icomapps.a(ota_api.o)
 .text.OtaTcpDisConnect
                0x0301cc24       0x3c icomapps.a(ota_api.o)
                0x0301cc24                OtaTcpDisConnect
 .text.setOtaRrmoteIp
                0x0301cc60       0x24 icomapps.a(ota_api.o)
                0x0301cc60                setOtaRrmoteIp
 .text.clearOtaParameters
                0x0301cc84       0x38 icomapps.a(ota_api.o)
                0x0301cc84                clearOtaParameters
 .text.process_thread_ota_updateProcess
                0x0301ccbc      0x20c icomapps.a(ota_api.o)
 .text          0x0301cec8        0x0 icomlib.a(pwm_api.o)
 .text.enableHwPWM
                0x0301cec8       0x30 icomlib.a(pwm_api.o)
                0x0301cec8                enableHwPWM
 .text.disableHwPWM
                0x0301cef8       0x10 icomlib.a(pwm_api.o)
                0x0301cef8                disableHwPWM
 .text          0x0301cf08        0x0 icomlib.a(serial_api.o)
 .text.SerialInit
                0x0301cf08       0x48 icomlib.a(serial_api.o)
                0x0301cf08                SerialInit
 .text.SerialConfig
                0x0301cf50        0xc icomlib.a(serial_api.o)
                0x0301cf50                SerialConfig
 .text.SerialDeinit
                0x0301cf5c       0x38 icomlib.a(serial_api.o)
                0x0301cf5c                SerialDeinit
 .text          0x0301cf94        0x0 icomlib.a(drv_pwm.o)
 .text.drv_pwm_setduty
                0x0301cf94       0x7c icomlib.a(drv_pwm.o)
                0x0301cf94                drv_pwm_setduty
 .text.drv_pwm_init
                0x0301d010       0x4c icomlib.a(drv_pwm.o)
                0x0301d010                drv_pwm_init
 .text.drv_pwm_enable
                0x0301d05c       0x14 icomlib.a(drv_pwm.o)
                0x0301d05c                drv_pwm_enable
 .text.drv_pwm_deinit
                0x0301d070       0x38 icomlib.a(drv_pwm.o)
                0x0301d070                drv_pwm_deinit
 .text.drv_pwm_disable
                0x0301d0a8       0x14 icomlib.a(drv_pwm.o)
                0x0301d0a8                drv_pwm_disable
 .text          0x0301d0bc        0x0 contikilib.a(dhcp_process.o)
 .text.process_thread_dhcp_process
                0x0301d0bc      0x194 contikilib.a(dhcp_process.o)
 .text.replyAck
                0x0301d250       0x10 contikilib.a(dhcp_process.o)
                0x0301d250                replyAck
 .text.set_node_ip
                0x0301d260       0x90 contikilib.a(dhcp_process.o)
                0x0301d260                set_node_ip
 .text.ip_configure
                0x0301d2f0       0x10 contikilib.a(dhcp_process.o)
                0x0301d2f0                ip_configure
 .text.dhcp_configure
                0x0301d300       0xb0 contikilib.a(dhcp_process.o)
                0x0301d300                dhcp_configure
 .text          0x0301d3b0        0x0 contikilib.a(dhcps.o)
 .text.unlikely.find_option
                0x0301d3b0       0x60 contikilib.a(dhcps.o)
 .text.create_msg
                0x0301d410       0x8c contikilib.a(dhcps.o)
 .text.add_lease_time
                0x0301d49c       0x68 contikilib.a(dhcps.o)
 .text.add_config
                0x0301d504       0xa8 contikilib.a(dhcps.o)
 .text.unlikely.lookup_lease_ip
                0x0301d5ac      0x170 contikilib.a(dhcps.o)
 .text.get_leased_mac
                0x0301d71c      0x248 contikilib.a(dhcps.o)
 .text.send_nack
                0x0301d964       0x98 contikilib.a(dhcps.o)
 .text.dhcp_dump_info
                0x0301d9fc       0xc4 contikilib.a(dhcps.o)
                0x0301d9fc                dhcp_dump_info
 .text.init_lease
                0x0301dac0       0x20 contikilib.a(dhcps.o)
                0x0301dac0                init_lease
 .text.process_thread_dhcp_server_process
                0x0301dae0      0x968 contikilib.a(dhcps.o)
 .text.release_address_by_mac
                0x0301e448       0xc8 contikilib.a(dhcps.o)
                0x0301e448                release_address_by_mac
 .text.dhcps_init
                0x0301e510       0x7c contikilib.a(dhcps.o)
                0x0301e510                dhcps_init
 .text.dhcps_exit
                0x0301e58c        0xc contikilib.a(dhcps.o)
                0x0301e58c                dhcps_exit
 .text          0x0301e598        0x0 contikilib.a(resolv.o)
 .text.skip_name
                0x0301e598       0x2c contikilib.a(resolv.o)
 .text.resolv_found.isra.0
                0x0301e5c4       0x18 contikilib.a(resolv.o)
 .text.process_thread_resolv_process
                0x0301e5dc      0x548 contikilib.a(resolv.o)
 .text.resolv_query
                0x0301eb24      0x150 contikilib.a(resolv.o)
                0x0301eb24                resolv_query
 .text.resolv_lookup
                0x0301ec74       0xdc contikilib.a(resolv.o)
                0x0301ec74                resolv_lookup
 .text.resolv_getserver
                0x0301ed50        0xc contikilib.a(resolv.o)
                0x0301ed50                resolv_getserver
 .text.resolv_conf
                0x0301ed5c       0x1c contikilib.a(resolv.o)
                0x0301ed5c                resolv_conf
 .text          0x0301ed78        0x0 contikilib.a(simple-udp.o)
 .text.process_thread_simple_udp_process
                0x0301ed78      0x14c contikilib.a(simple-udp.o)
 .text.simple_udp_send
                0x0301eec4       0x48 contikilib.a(simple-udp.o)
                0x0301eec4                simple_udp_send
 .text.simple_udp_sendto
                0x0301ef0c       0x44 contikilib.a(simple-udp.o)
                0x0301ef0c                simple_udp_sendto
 .text.simple_udp_sendto_port
                0x0301ef50       0x40 contikilib.a(simple-udp.o)
                0x0301ef50                simple_udp_sendto_port
 .text.simple_udp_register
                0x0301ef90       0xcc contikilib.a(simple-udp.o)
                0x0301ef90                simple_udp_register
 .text          0x0301f05c        0x0 contikilib.a(uip_arp.o)
 .text.send_arp_request
                0x0301f05c       0xf0 contikilib.a(uip_arp.o)
 .text.process_thread_get_gatewaymac_process
                0x0301f14c       0xcc contikilib.a(uip_arp.o)
 .text.uip_arp_print
                0x0301f218       0x80 contikilib.a(uip_arp.o)
                0x0301f218                uip_arp_print
 .text.uip_arp_delete
                0x0301f298       0xac contikilib.a(uip_arp.o)
                0x0301f298                uip_arp_delete
 .text.uip_arp_init
                0x0301f344       0x84 contikilib.a(uip_arp.o)
                0x0301f344                uip_arp_init
 .text.uip_arp_timer
                0x0301f3c8       0x84 contikilib.a(uip_arp.o)
                0x0301f3c8                uip_arp_timer
 .text.process_thread_arptable_polling_process
                0x0301f44c       0x94 contikilib.a(uip_arp.o)
 .text.uip_arp_update
                0x0301f4e0      0x204 contikilib.a(uip_arp.o)
                0x0301f4e0                uip_arp_update
 .text.uip_arp_softap_init
                0x0301f6e4       0x40 contikilib.a(uip_arp.o)
                0x0301f6e4                uip_arp_softap_init
 .text.check_ip_in_arptable
                0x0301f724       0x44 contikilib.a(uip_arp.o)
                0x0301f724                check_ip_in_arptable
 .text.send_needip_arp_request
                0x0301f768       0x10 contikilib.a(uip_arp.o)
                0x0301f768                send_needip_arp_request
 .text.uip_arp_ready
                0x0301f778       0xcc contikilib.a(uip_arp.o)
                0x0301f778                uip_arp_ready
 .text          0x0301f844        0x0 contikilib.a(uiplib.o)
 .text.uiplib_ip4addrconv
                0x0301f844       0xa4 contikilib.a(uiplib.o)
                0x0301f844                uiplib_ip4addrconv
 .text          0x0301f8e8        0x0 contikilib.a(uip-udp-packet.)
 .text          0x0301f8e8        0x0 contikilib.a(ntp_client.o)
 .text.process_thread_ntp_client_Process
                0x0301f8e8      0x1a8 contikilib.a(ntp_client.o)
 .text.process_thread_ntp_connectPprocess
                0x0301fa90      0x124 contikilib.a(ntp_client.o)
 .text.showReceNtpMsg
                0x0301fbb4      0x21c contikilib.a(ntp_client.o)
                0x0301fbb4                showReceNtpMsg
 .text          0x0301fdd0        0x0 contikilib.a(dhcpc.o)
 .text.create_msg
                0x0301fdd0      0x100 contikilib.a(dhcpc.o)
 .text.unlikely.send_request
                0x0301fed0       0x9c contikilib.a(dhcpc.o)
 .text.msg_for_me
                0x0301ff6c       0xb0 contikilib.a(dhcpc.o)
 .text.unlikely.parse_msg
                0x0302001c      0x134 contikilib.a(dhcpc.o)
 .text.getDhcpState
                0x03020150       0x10 contikilib.a(dhcpc.o)
                0x03020150                getDhcpState
 .text.dhcpc_configured
                0x03020160      0x13c contikilib.a(dhcpc.o)
                0x03020160                dhcpc_configured
 .text.handle_dhcp.isra.0
                0x0302029c      0x754 contikilib.a(dhcpc.o)
 .text.dhcpc_unconfigured
                0x030209f0        0xc contikilib.a(dhcpc.o)
                0x030209f0                dhcpc_unconfigured
 .text.dhcpc_init
                0x030209fc       0x84 contikilib.a(dhcpc.o)
                0x030209fc                dhcpc_init
 .text.dhcpc_appcall
                0x03020a80        0x4 contikilib.a(dhcpc.o)
                0x03020a80                dhcpc_appcall
 .text.dhcpc_request
                0x03020a84       0x40 contikilib.a(dhcpc.o)
                0x03020a84                dhcpc_request
 .text          0x03020ac4        0x0 accloud.a(zc_common.o)
 .text.ZC_TraceData
                0x03020ac4       0xe8 accloud.a(zc_common.o)
                0x03020ac4                ZC_TraceData
 .text.ZC_Rand  0x03020bac       0x7c accloud.a(zc_common.o)
                0x03020bac                ZC_Rand
 .text.ZC_HexToString
                0x03020c28       0x68 accloud.a(zc_common.o)
                0x03020c28                ZC_HexToString
 .text          0x03020c90        0x0 accloud.a(zc_configuratio)
 .text.ZC_ConfigInitDefault
                0x03020c90       0x84 accloud.a(zc_configuratio)
                0x03020c90                ZC_ConfigInitDefault
 .text.ZC_ConfigInitPara
                0x03020d14       0x6c accloud.a(zc_configuratio)
                0x03020d14                ZC_ConfigInitPara
 .text.ZC_ConfigPara
                0x03020d80      0x130 accloud.a(zc_configuratio)
                0x03020d80                ZC_ConfigPara
 .text.ZC_StoreRegisterInfo
                0x03020eb0       0xa4 accloud.a(zc_configuratio)
                0x03020eb0                ZC_StoreRegisterInfo
 .text.ZC_StoreTokenKey
                0x03020f54       0x58 accloud.a(zc_configuratio)
                0x03020f54                ZC_StoreTokenKey
 .text.ZC_StoreConnectionInfo
                0x03020fac       0x70 accloud.a(zc_configuratio)
                0x03020fac                ZC_StoreConnectionInfo
 .text.ZC_StoreAccessInfo
                0x0302101c       0x78 accloud.a(zc_configuratio)
                0x0302101c                ZC_StoreAccessInfo
 .text.ZC_GetStoreInfor
                0x03021094       0x60 accloud.a(zc_configuratio)
                0x03021094                ZC_GetStoreInfor
 .text.ZC_ConfigUnBind
                0x030210f4       0x40 accloud.a(zc_configuratio)
                0x030210f4                ZC_ConfigUnBind
 .text.ZC_ConfigReset
                0x03021134       0x6c accloud.a(zc_configuratio)
                0x03021134                ZC_ConfigReset
 .text          0x030211a0        0x0 accloud.a(zc_message_queu)
 .text.MSG_InitQueue
                0x030211a0       0x40 accloud.a(zc_message_queu)
                0x030211a0                MSG_InitQueue
 .text.MSG_Init
                0x030211e0       0x64 accloud.a(zc_message_queu)
                0x030211e0                MSG_Init
 .text.MSG_PushMsg
                0x03021244       0x24 accloud.a(zc_message_queu)
                0x03021244                MSG_PushMsg
 .text.MSG_PopMsg
                0x03021268       0x2c accloud.a(zc_message_queu)
                0x03021268                MSG_PopMsg
 .text.MSG_RecvData
                0x03021294      0x1b8 accloud.a(zc_message_queu)
                0x03021294                MSG_RecvData
 .text.MSG_RecvDataFromCloud
                0x0302144c       0x94 accloud.a(zc_message_queu)
                0x0302144c                MSG_RecvDataFromCloud
 .text.MSG_SendDataToCloud
                0x030214e0       0x80 accloud.a(zc_message_queu)
                0x030214e0                MSG_SendDataToCloud
 .text          0x03021560        0x0 accloud.a(zc_protocol_con)
 .text.PCT_CheckCrc
                0x03021560       0x60 accloud.a(zc_protocol_con)
                0x03021560                PCT_CheckCrc
 .text.PCT_SendNotifyMsg
                0x030215c0       0x50 accloud.a(zc_protocol_con)
                0x030215c0                PCT_SendNotifyMsg
 .text.PCT_Init
                0x03021610       0x8c accloud.a(zc_protocol_con)
                0x03021610                PCT_Init
 .text.PCT_DisConnectCloud
                0x0302169c       0x24 accloud.a(zc_protocol_con)
                0x0302169c                PCT_DisConnectCloud
 .text.PCT_ConnectCloud
                0x030216c0       0x38 accloud.a(zc_protocol_con)
                0x030216c0                PCT_ConnectCloud
 .text.PCT_ReconnectCloud
                0x030216f8       0xb0 accloud.a(zc_protocol_con)
                0x030216f8                PCT_ReconnectCloud
 .text.PCT_RecvAccessMsg4
                0x030217a8      0x10c accloud.a(zc_protocol_con)
                0x030217a8                PCT_RecvAccessMsg4
 .text.PCT_HandleUnbindMsg
                0x030218b4       0x9c accloud.a(zc_protocol_con)
                0x030218b4                PCT_HandleUnbindMsg
 .text.PCT_ModuleOtaFileBeginMsg
                0x03021950       0x6c accloud.a(zc_protocol_con)
                0x03021950                PCT_ModuleOtaFileBeginMsg
 .text.PCT_ModuleOtaFileChunkMsg
                0x030219bc      0x14c accloud.a(zc_protocol_con)
                0x030219bc                PCT_ModuleOtaFileChunkMsg
 .text.PCT_ModuleOtaFileEndMsg
                0x03021b08       0x48 accloud.a(zc_protocol_con)
                0x03021b08                PCT_ModuleOtaFileEndMsg
 .text.PCT_HandleMoudleMsg
                0x03021b50       0x8c accloud.a(zc_protocol_con)
                0x03021b50                PCT_HandleMoudleMsg
 .text.PCT_WakeUp
                0x03021bdc       0x3c accloud.a(zc_protocol_con)
                0x03021bdc                PCT_WakeUp
 .text.PCT_Sleep
                0x03021c18       0x6c accloud.a(zc_protocol_con)
                0x03021c18                PCT_Sleep
 .text.PCT_SendMsgToCloud
                0x03021c84      0x150 accloud.a(zc_protocol_con)
                0x03021c84                PCT_SendMsgToCloud
 .text.PCT_SendHeartMsg
                0x03021dd4       0x7c accloud.a(zc_protocol_con)
                0x03021dd4                PCT_SendHeartMsg
 .text.PCT_SendEmptyMsg
                0x03021e50       0x58 accloud.a(zc_protocol_con)
                0x03021e50                PCT_SendEmptyMsg
 .text.PCT_SendErrorMsg
                0x03021ea8       0x64 accloud.a(zc_protocol_con)
                0x03021ea8                PCT_SendErrorMsg
 .text.PCT_SendMoudleTimeout
                0x03021f0c       0x50 accloud.a(zc_protocol_con)
                0x03021f0c                PCT_SendMoudleTimeout
 .text.PCT_SendCloudAccessMsg1
                0x03021f5c      0x14c accloud.a(zc_protocol_con)
                0x03021f5c                PCT_SendCloudAccessMsg1
 .text.PCT_SendCloudAccessMsg3
                0x030220a8       0xec accloud.a(zc_protocol_con)
                0x030220a8                PCT_SendCloudAccessMsg3
 .text.PCT_RecvAccessMsg2
                0x03022194      0x198 accloud.a(zc_protocol_con)
                0x03022194                PCT_RecvAccessMsg2
 .text.PCT_HandleMoudleEvent
                0x0302232c       0x74 accloud.a(zc_protocol_con)
                0x0302232c                PCT_HandleMoudleEvent
 .text.PCT_SendUnbindMsg
                0x030223a0       0xb0 accloud.a(zc_protocol_con)
                0x030223a0                PCT_SendUnbindMsg
 .text.PCT_SendAckToCloud
                0x03022450       0x68 accloud.a(zc_protocol_con)
                0x03022450                PCT_SendAckToCloud
 .text.PCT_HandleOtaBeginMsg
                0x030224b8       0x38 accloud.a(zc_protocol_con)
                0x030224b8                PCT_HandleOtaBeginMsg
 .text.PCT_HandleOtaFileBeginMsg
                0x030224f0       0x6c accloud.a(zc_protocol_con)
                0x030224f0                PCT_HandleOtaFileBeginMsg
 .text.PCT_HandleOtaFileChunkMsg
                0x0302255c      0x138 accloud.a(zc_protocol_con)
                0x0302255c                PCT_HandleOtaFileChunkMsg
 .text.PCT_HandleOtaFileEndMsg
                0x03022694       0x30 accloud.a(zc_protocol_con)
                0x03022694                PCT_HandleOtaFileEndMsg
 .text.PCT_HandleOtaEndMsg
                0x030226c4       0x78 accloud.a(zc_protocol_con)
                0x030226c4                PCT_HandleOtaEndMsg
 .text.PCT_SetTokenKey
                0x0302273c       0x28 accloud.a(zc_protocol_con)
                0x0302273c                PCT_SetTokenKey
 .text.PCT_ResetNetWork
                0x03022764       0x30 accloud.a(zc_protocol_con)
                0x03022764                PCT_ResetNetWork
 .text.PCT_HandleEvent
                0x03022794      0x204 accloud.a(zc_protocol_con)
                0x03022794                PCT_HandleEvent
 .text.PCT_Run  0x03022998       0x8c accloud.a(zc_protocol_con)
                0x03022998                PCT_Run
 .text.PCT_TurnOnOffLight
                0x03022a24       0xd4 accloud.a(zc_protocol_con)
                0x03022a24                PCT_TurnOnOffLight
 .text          0x03022af8        0x0 accloud.a(zc_sec_engine.o)
 .text.SEC_InitRsaContextWithPublicKey
                0x03022af8       0x50 accloud.a(zc_sec_engine.o)
                0x03022af8                SEC_InitRsaContextWithPublicKey
 .text.SEC_EncryptTextByRsa
                0x03022b48      0x188 accloud.a(zc_sec_engine.o)
                0x03022b48                SEC_EncryptTextByRsa
 .text.SEC_InitRsaContextWithPrivateKey
                0x03022cd0       0xe4 accloud.a(zc_sec_engine.o)
                0x03022cd0                SEC_InitRsaContextWithPrivateKey
 .text.SEC_DecryptTextByRsa
                0x03022db4      0x1a0 accloud.a(zc_sec_engine.o)
                0x03022db4                SEC_DecryptTextByRsa
 .text.SEC_AesEncrypt
                0x03022f54       0x7c accloud.a(zc_sec_engine.o)
                0x03022f54                SEC_AesEncrypt
 .text.SEC_AesDecrypt
                0x03022fd0       0x6c accloud.a(zc_sec_engine.o)
                0x03022fd0                SEC_AesDecrypt
 .text.SEC_PaddingCheck
                0x0302303c       0x7c accloud.a(zc_sec_engine.o)
                0x0302303c                SEC_PaddingCheck
 .text.SEC_Encrypt
                0x030230b8       0xe0 accloud.a(zc_sec_engine.o)
                0x030230b8                SEC_Encrypt
 .text.SEC_Decrypt
                0x03023198      0x100 accloud.a(zc_sec_engine.o)
                0x03023198                SEC_Decrypt
 .text          0x03023298        0x0 accloud.a(zc_timer.o)
 .text.TIMER_Init
                0x03023298       0x24 accloud.a(zc_timer.o)
                0x03023298                TIMER_Init
 .text.TIMER_FindIdleTimer
                0x030232bc       0x3c accloud.a(zc_timer.o)
                0x030232bc                TIMER_FindIdleTimer
 .text.TIMER_AllocateTimer
                0x030232f8       0x20 accloud.a(zc_timer.o)
                0x030232f8                TIMER_AllocateTimer
 .text.TIMER_GetTimerStatus
                0x03023318       0x14 accloud.a(zc_timer.o)
                0x03023318                TIMER_GetTimerStatus
 .text.TIMER_TimeoutAction
                0x0302332c       0xe8 accloud.a(zc_timer.o)
                0x0302332c                TIMER_TimeoutAction
 .text.TIMER_StopTimer
                0x03023414       0x2c accloud.a(zc_timer.o)
                0x03023414                TIMER_StopTimer
 .text          0x03023440        0x0 accloud.a(zc_hf_adpter.o)
 .text.HF_StopTimer
                0x03023440        0x4 accloud.a(zc_hf_adpter.o)
                0x03023440                HF_StopTimer
 .text.HF_FirmwareUpdateFinish
                0x03023444        0x8 accloud.a(zc_hf_adpter.o)
                0x03023444                HF_FirmwareUpdateFinish
 .text.HF_FirmwareUpdate
                0x0302344c        0x8 accloud.a(zc_hf_adpter.o)
                0x0302344c                HF_FirmwareUpdate
 .text.HF_ListenClient
                0x03023454        0x8 accloud.a(zc_hf_adpter.o)
                0x03023454                HF_ListenClient
 .text.HF_ReadDataFromFlash
                0x0302345c       0x18 accloud.a(zc_hf_adpter.o)
                0x0302345c                HF_ReadDataFromFlash
 .text.HF_WriteDataToFlash
                0x03023474       0x38 accloud.a(zc_hf_adpter.o)
                0x03023474                HF_WriteDataToFlash
 .text.HF_SendDataToMoudle
                0x030234ac       0x10 accloud.a(zc_hf_adpter.o)
                0x030234ac                HF_SendDataToMoudle
 .text.HF_Rest  0x030234bc        0x4 accloud.a(zc_hf_adpter.o)
                0x030234bc                HF_Rest
 .text.HF_Reboot
                0x030234c0        0x4 accloud.a(zc_hf_adpter.o)
                0x030234c0                HF_Reboot
 .text.HF_SendTcpData
                0x030234c4        0x4 accloud.a(zc_hf_adpter.o)
                0x030234c4                HF_SendTcpData
 .text.HF_SendUdpData
                0x030234c8       0x30 accloud.a(zc_hf_adpter.o)
                0x030234c8                HF_SendUdpData
 .text.HF_GetMac
                0x030234f8       0x60 accloud.a(zc_hf_adpter.o)
                0x030234f8                HF_GetMac
 .text.HF_Printf
                0x03023558       0x4c accloud.a(zc_hf_adpter.o)
                0x03023558                HF_Printf
 .text.HF_SetTimer
                0x030235a4       0x9c accloud.a(zc_hf_adpter.o)
                0x030235a4                HF_SetTimer
 .text.HF_ConnectToCloud
                0x03023640       0xa4 accloud.a(zc_hf_adpter.o)
                0x03023640                HF_ConnectToCloud
 .text.HF_TimerExpired
                0x030236e4       0x64 accloud.a(zc_hf_adpter.o)
                0x030236e4                HF_TimerExpired
 .text.HF_BcInit
                0x03023748        0x4 accloud.a(zc_hf_adpter.o)
                0x03023748                HF_BcInit
 .text.HF_Init  0x0302374c      0x178 accloud.a(zc_hf_adpter.o)
                0x0302374c                HF_Init
 .text.HF_WakeUp
                0x030238c4       0x28 accloud.a(zc_hf_adpter.o)
                0x030238c4                HF_WakeUp
 .text.HF_Sleep
                0x030238ec       0x20 accloud.a(zc_hf_adpter.o)
                0x030238ec                HF_Sleep
 .text.HF_Run   0x0302390c       0x18 accloud.a(zc_hf_adpter.o)
                0x0302390c                HF_Run
 .text.AC_UartSend
                0x03023924        0x4 accloud.a(zc_hf_adpter.o)
                0x03023924                AC_UartSend
 .text          0x03023928        0x0 accloud.a(ac_api.o)
 .text.AC_BuildOption
                0x03023928       0xb8 accloud.a(ac_api.o)
                0x03023928                AC_BuildOption
 .text.AC_BuildMessage
                0x030239e0       0xc0 accloud.a(ac_api.o)
                0x030239e0                AC_BuildMessage
 .text.AC_SendDeviceStart
                0x03023aa0       0x50 accloud.a(ac_api.o)
                0x03023aa0                AC_SendDeviceStart
 .text.AC_SendMessage
                0x03023af0        0x4 accloud.a(ac_api.o)
                0x03023af0                AC_SendMessage
 .text.AC_SendRestMsg
                0x03023af4       0x4c accloud.a(ac_api.o)
                0x03023af4                AC_SendRestMsg
 .text.AC_SendUbindMsg
                0x03023b40       0x50 accloud.a(ac_api.o)
                0x03023b40                AC_SendUbindMsg
 .text.AC_ParseOption
                0x03023b90       0xbc accloud.a(ac_api.o)
                0x03023b90                AC_ParseOption
 .text.AC_SendDeviceRegsiterWithMac
                0x03023c4c       0x98 accloud.a(ac_api.o)
                0x03023c4c                AC_SendDeviceRegsiterWithMac
 .text.AC_RecvMessage
                0x03023ce4       0x70 accloud.a(ac_api.o)
                0x03023ce4                AC_RecvMessage
 .text.AC_CalcSum
                0x03023d54       0x28 accloud.a(ac_api.o)
                0x03023d54                AC_CalcSum
 .text.AC_BuildEasyMessage
                0x03023d7c       0xf4 accloud.a(ac_api.o)
                0x03023d7c                AC_BuildEasyMessage
 .text.AC_CheckSum
                0x03023e70       0x30 accloud.a(ac_api.o)
                0x03023e70                AC_CheckSum
 .text          0x03023ea0        0x0 accloud.a(ac_hal.o)
 .text.AC_UartProcess
                0x03023ea0      0x11c accloud.a(ac_hal.o)
                0x03023ea0                AC_UartProcess
 .text.AC_UartRecv
                0x03023fbc       0xdc accloud.a(ac_hal.o)
                0x03023fbc                AC_UartRecv
 .text.AC_SendLedStatus2Server
                0x03024098       0x5c accloud.a(ac_hal.o)
                0x03024098                AC_SendLedStatus2Server
 .text.AC_ConfigWifi
                0x030240f4       0x30 accloud.a(ac_hal.o)
                0x030240f4                AC_ConfigWifi
 .text.AC_DealNotifyMessage
                0x03024124       0x7c accloud.a(ac_hal.o)
                0x03024124                AC_DealNotifyMessage
 .text.AC_StoreStatus
                0x030241a0       0x2c accloud.a(ac_hal.o)
                0x030241a0                AC_StoreStatus
 .text.AC_BlinkLed
                0x030241cc        0x4 accloud.a(ac_hal.o)
                0x030241cc                AC_BlinkLed
 .text.AC_DealLed
                0x030241d0       0x78 accloud.a(ac_hal.o)
                0x030241d0                AC_DealLed
 .text.AC_DealEvent
                0x03024248       0x10 accloud.a(ac_hal.o)
                0x03024248                AC_DealEvent
 .text.AC_GetStoreStatus
                0x03024258       0x34 accloud.a(ac_hal.o)
                0x03024258                AC_GetStoreStatus
 .text.AC_Init  0x0302428c        0x4 accloud.a(ac_hal.o)
                0x0302428c                AC_Init
 .text          0x03024290        0x0 accloud.a(aes_cbc.o)
 .text.AES_cbc_core
                0x03024290      0x2d8 accloud.a(aes_cbc.o)
                0x03024290                AES_cbc_core
 .text.AES_CBC_Encrypt
                0x03024568       0x54 accloud.a(aes_cbc.o)
                0x03024568                AES_CBC_Encrypt
 .text.AES_CBC_Decrypt
                0x030245bc       0x54 accloud.a(aes_cbc.o)
                0x030245bc                AES_CBC_Decrypt
 .text          0x03024610        0x0 accloud.a(aes_core.o)
 .text.AES_set_encrypt_key
                0x03024610      0x3ec accloud.a(aes_core.o)
                0x03024610                AES_set_encrypt_key
 .text.AES_set_decrypt_key
                0x030249fc      0x200 accloud.a(aes_core.o)
                0x030249fc                AES_set_decrypt_key
 .text.AES_encrypt_ext
                0x03024bfc      0x4b0 accloud.a(aes_core.o)
                0x03024bfc                AES_encrypt_ext
 .text.AES_decrypt_ext
                0x030250ac      0x4c0 accloud.a(aes_core.o)
                0x030250ac                AES_decrypt_ext
 .text          0x0302556c        0x0 accloud.a(crc.o)
 .text.crc_cal_by_bit
                0x0302556c       0x54 accloud.a(crc.o)
                0x0302556c                crc_cal_by_bit
 .text.crc_cal_by_byte
                0x030255c0       0x3c accloud.a(crc.o)
                0x030255c0                crc_cal_by_byte
 .text.crc_cal_by_halfbyte
                0x030255fc       0x58 accloud.a(crc.o)
                0x030255fc                crc_cal_by_halfbyte
 .text.crc16_ccitt
                0x03025654       0x14 accloud.a(crc.o)
                0x03025654                crc16_ccitt
 .text          0x03025668        0x0 accloud.a(bignum.o)
 .text.mpi_sub_hlp
                0x03025668       0x84 accloud.a(bignum.o)
 .text.mpi_mul_hlp
                0x030256ec      0x398 accloud.a(bignum.o)
 .text.mpi_grow.part.1
                0x03025a84       0x3c accloud.a(bignum.o)
 .text.mpi_init
                0x03025ac0       0x24 accloud.a(bignum.o)
                0x03025ac0                mpi_init
 .text.mpi_free
                0x03025ae4       0x2c accloud.a(bignum.o)
                0x03025ae4                mpi_free
 .text.mpi_grow
                0x03025b10       0x10 accloud.a(bignum.o)
                0x03025b10                mpi_grow
 .text.mpi_copy
                0x03025b20       0x9c accloud.a(bignum.o)
                0x03025b20                mpi_copy
 .text.mpi_swap
                0x03025bbc       0x48 accloud.a(bignum.o)
                0x03025bbc                mpi_swap
 .text.mpi_lset
                0x03025c04       0x54 accloud.a(bignum.o)
                0x03025c04                mpi_lset
 .text.mpi_lsb  0x03025c58       0x58 accloud.a(bignum.o)
                0x03025c58                mpi_lsb
 .text.mpi_msb  0x03025cb0       0x5c accloud.a(bignum.o)
                0x03025cb0                mpi_msb
 .text.mpi_size
                0x03025d0c       0x14 accloud.a(bignum.o)
                0x03025d0c                mpi_size
 .text.mpi_read_binary
                0x03025d20       0xb0 accloud.a(bignum.o)
                0x03025d20                mpi_read_binary
 .text.mpi_write_binary
                0x03025dd0       0x78 accloud.a(bignum.o)
                0x03025dd0                mpi_write_binary
 .text.mpi_shift_l
                0x03025e48      0x10c accloud.a(bignum.o)
                0x03025e48                mpi_shift_l
 .text.mpi_shift_r
                0x03025f54       0xc8 accloud.a(bignum.o)
                0x03025f54                mpi_shift_r
 .text.mpi_cmp_abs
                0x0302601c       0xd0 accloud.a(bignum.o)
                0x0302601c                mpi_cmp_abs
 .text.mpi_montmul.constprop.5
                0x030260ec      0x118 accloud.a(bignum.o)
 .text.mpi_cmp_mpi
                0x03026204      0x100 accloud.a(bignum.o)
                0x03026204                mpi_cmp_mpi
 .text.mpi_cmp_int
                0x03026304       0x3c accloud.a(bignum.o)
                0x03026304                mpi_cmp_int
 .text.mpi_add_abs
                0x03026340      0x13c accloud.a(bignum.o)
                0x03026340                mpi_add_abs
 .text.mpi_sub_abs
                0x0302647c       0xcc accloud.a(bignum.o)
                0x0302647c                mpi_sub_abs
 .text.mpi_add_mpi
                0x03026548       0x78 accloud.a(bignum.o)
                0x03026548                mpi_add_mpi
 .text.mpi_sub_mpi
                0x030265c0       0x7c accloud.a(bignum.o)
                0x030265c0                mpi_sub_mpi
 .text.mpi_add_int
                0x0302663c       0x3c accloud.a(bignum.o)
                0x0302663c                mpi_add_int
 .text.mpi_sub_int
                0x03026678       0x3c accloud.a(bignum.o)
                0x03026678                mpi_sub_int
 .text.mpi_mul_mpi
                0x030266b4      0x14c accloud.a(bignum.o)
                0x030266b4                mpi_mul_mpi
 .text.mpi_mul_int
                0x03026800       0x28 accloud.a(bignum.o)
                0x03026800                mpi_mul_int
 .text.mpi_div_mpi
                0x03026828      0x5b0 accloud.a(bignum.o)
                0x03026828                mpi_div_mpi
 .text.mpi_div_int
                0x03026dd8       0x3c accloud.a(bignum.o)
                0x03026dd8                mpi_div_int
 .text.mpi_mod_mpi
                0x03026e14       0x98 accloud.a(bignum.o)
                0x03026e14                mpi_mod_mpi
 .text.mpi_mod_int
                0x03026eac       0xb0 accloud.a(bignum.o)
                0x03026eac                mpi_mod_int
 .text.mpi_exp_mod
                0x03026f5c      0x4f4 accloud.a(bignum.o)
                0x03026f5c                mpi_exp_mod
 .text.mpi_is_prime.part.3
                0x03027450      0x328 accloud.a(bignum.o)
 .text.mpi_gcd  0x03027778      0x19c accloud.a(bignum.o)
                0x03027778                mpi_gcd
 .text.mpi_inv_mod
                0x03027914      0x3e8 accloud.a(bignum.o)
                0x03027914                mpi_inv_mod
 .text.mpi_is_prime
                0x03027cfc       0x34 accloud.a(bignum.o)
                0x03027cfc                mpi_is_prime
 .text.mpi_gen_prime
                0x03027d30      0x1c8 accloud.a(bignum.o)
                0x03027d30                mpi_gen_prime
 .text          0x03027ef8        0x0 accloud.a(rsa.o)
 .text.rsa_init
                0x03027ef8       0x38 accloud.a(rsa.o)
                0x03027ef8                rsa_init
 .text.rsa_public
                0x03027f30       0xc0 accloud.a(rsa.o)
                0x03027f30                rsa_public
 .text.rsa_private
                0x03027ff0      0x184 accloud.a(rsa.o)
                0x03027ff0                rsa_private
 .text.rsa_pkcs1_encrypt
                0x03028174       0xd4 accloud.a(rsa.o)
                0x03028174                rsa_pkcs1_encrypt
 .text.rsa_pkcs1_decrypt
                0x03028248       0xec accloud.a(rsa.o)
                0x03028248                rsa_pkcs1_decrypt
 .text.rsa_free
                0x03028334       0x64 accloud.a(rsa.o)
                0x03028334                rsa_free
 .text          0x03028398        0x0 accloud.a(zc_client_manag)
 .text.ZC_ClientDisconnect
                0x03028398       0x54 accloud.a(zc_client_manag)
                0x03028398                ZC_ClientDisconnect
 .text.ZC_ClientConnect
                0x030283ec       0x4c accloud.a(zc_client_manag)
                0x030283ec                ZC_ClientConnect
 .text.ZC_ClientInit
                0x03028438       0x28 accloud.a(zc_client_manag)
                0x03028438                ZC_ClientInit
 .text.ZC_CheckClientIdle
                0x03028460       0x2c accloud.a(zc_client_manag)
                0x03028460                ZC_CheckClientIdle
 .text.ZC_SetClientBusy
                0x0302848c       0x18 accloud.a(zc_client_manag)
                0x0302848c                ZC_SetClientBusy
 .text.ZC_SetClientFree
                0x030284a4       0x14 accloud.a(zc_client_manag)
                0x030284a4                ZC_SetClientFree
 .text.ZC_StartClientListen
                0x030284b8       0x40 accloud.a(zc_client_manag)
                0x030284b8                ZC_StartClientListen
 .text.ZC_ClientWakeUp
                0x030284f8       0x14 accloud.a(zc_client_manag)
                0x030284f8                ZC_ClientWakeUp
 .text.ZC_ClientSleep
                0x0302850c        0x4 accloud.a(zc_client_manag)
                0x0302850c                ZC_ClientSleep
 .text.ZC_RecvDataFromClient
                0x03028510      0x3dc accloud.a(zc_client_manag)
                0x03028510                ZC_RecvDataFromClient
 .text          0x030288ec        0x0 accloud.a(zc_cloud_event.)
 .text.EVENT_BuildEmptyMsg
                0x030288ec       0x5c accloud.a(zc_cloud_event.)
                0x030288ec                EVENT_BuildEmptyMsg
 .text.EVENT_BuildHeartMsg
                0x03028948       0x5c accloud.a(zc_cloud_event.)
                0x03028948                EVENT_BuildHeartMsg
 .text.EVENT_BuildMsg
                0x030289a4       0x88 accloud.a(zc_cloud_event.)
                0x030289a4                EVENT_BuildMsg
 .text.EVENT_BuildBcMsg
                0x03028a2c       0xbc accloud.a(zc_cloud_event.)
                0x03028a2c                EVENT_BuildBcMsg
 .text.EVENT_ParseOption
                0x03028ae8       0xbc accloud.a(zc_cloud_event.)
                0x03028ae8                EVENT_ParseOption
 .text.EVENT_BuildOption
                0x03028ba4       0xb8 accloud.a(zc_cloud_event.)
                0x03028ba4                EVENT_BuildOption
 .text          0x03028c5c        0x0 accloud.a(zc_moudle_manag)
 .text.ZC_DealSessionOpt
                0x03028c5c      0x1e0 accloud.a(zc_moudle_manag)
                0x03028c5c                ZC_DealSessionOpt
 .text.ZC_DealExtCode
                0x03028e3c       0x90 accloud.a(zc_moudle_manag)
                0x03028e3c                ZC_DealExtCode
 .text.ZC_RecvDataFromMoudle
                0x03028ecc      0x250 accloud.a(zc_moudle_manag)
                0x03028ecc                ZC_RecvDataFromMoudle
 .text.ZC_AssemblePkt
                0x0302911c      0x260 accloud.a(zc_moudle_manag)
                0x0302911c                ZC_AssemblePkt
 .text.ZC_Moudlefunc
                0x0302937c       0x78 accloud.a(zc_moudle_manag)
                0x0302937c                ZC_Moudlefunc
 .text          0x030293f4      0x85c ./thirdPartyLib/libairkiss.a(airkiss.o)
                0x03029420                airkiss_version
                0x0302942c                airkiss_init
                0x030294a0                airkiss_recv
                0x03029b54                airkiss_get_result
                0x03029bf8                airkiss_change_channel
 .text          0x03029c50      0x114 /usr/bin/../lib/gcc/arm-none-eabi/4.8.4/libgcc.a(_udivsi3.o)
                0x03029c50                __udivsi3
                0x03029c50                __aeabi_uidiv
                0x03029d44                __aeabi_uidivmod
 .text          0x03029d64      0x148 /usr/bin/../lib/gcc/arm-none-eabi/4.8.4/libgcc.a(_divsi3.o)
                0x03029d64                __aeabi_idiv
                0x03029d64                __divsi3
                0x03029e8c                __aeabi_idivmod
 .text          0x03029eac        0x4 /usr/bin/../lib/gcc/arm-none-eabi/4.8.4/libgcc.a(_dvmd_tls.o)
                0x03029eac                __aeabi_ldiv0
                0x03029eac                __aeabi_idiv0
 .text          0x03029eb0       0x3c /usr/bin/../lib/gcc/arm-none-eabi/4.8.4/libgcc.a(_aeabi_uldivmod.o)
                0x03029eb0                __aeabi_uldivmod
 .text          0x03029eec       0x84 /usr/bin/../lib/gcc/arm-none-eabi/4.8.4/libgcc.a(bpabi.o)
                0x03029eec                __gnu_ldivmod_helper
                0x03029f30                __gnu_uldivmod_helper
 .text          0x03029f70      0x4d0 /usr/bin/../lib/gcc/arm-none-eabi/4.8.4/libgcc.a(_divdi3.o)
                0x03029f70                __divdi3
 .text          0x0302a440      0x470 /usr/bin/../lib/gcc/arm-none-eabi/4.8.4/libgcc.a(_udivdi3.o)
                0x0302a440                __udivdi3
 .text          0x0302a8b0       0x48 /usr/bin/../lib/gcc/arm-none-eabi/4.8.4/libgcc.a(_clzsi2.o)
                0x0302a8b0                __clzsi2
 .text          0x0302a8f8        0x0 /usr/bin/../lib/gcc/arm-none-eabi/4.8.4/../../../../arm-none-eabi/lib/libg_s.a(lib_a-atoi.o)
 .text.atoi     0x0302a8f8       0x18 /usr/bin/../lib/gcc/arm-none-eabi/4.8.4/../../../../arm-none-eabi/lib/libg_s.a(lib_a-atoi.o)
                0x0302a8f8                atoi
 .text._atoi_r  0x0302a910       0x18 /usr/bin/../lib/gcc/arm-none-eabi/4.8.4/../../../../arm-none-eabi/lib/libg_s.a(lib_a-atoi.o)
                0x0302a910                _atoi_r
 .text          0x0302a928        0x0 /usr/bin/../lib/gcc/arm-none-eabi/4.8.4/../../../../arm-none-eabi/lib/libg_s.a(lib_a-errno.o)
 .text.__errno  0x0302a928       0x10 /usr/bin/../lib/gcc/arm-none-eabi/4.8.4/../../../../arm-none-eabi/lib/libg_s.a(lib_a-errno.o)
                0x0302a928                __errno
 .text          0x0302a938        0x0 /usr/bin/../lib/gcc/arm-none-eabi/4.8.4/../../../../arm-none-eabi/lib/libg_s.a(lib_a-impure.o)
 .text          0x0302a938        0x0 /usr/bin/../lib/gcc/arm-none-eabi/4.8.4/../../../../arm-none-eabi/lib/libg_s.a(lib_a-malloc.o)
 .text.malloc   0x0302a938       0x20 /usr/bin/../lib/gcc/arm-none-eabi/4.8.4/../../../../arm-none-eabi/lib/libg_s.a(lib_a-malloc.o)
                0x0302a938                malloc
 .text.free     0x0302a958       0x20 /usr/bin/../lib/gcc/arm-none-eabi/4.8.4/../../../../arm-none-eabi/lib/libg_s.a(lib_a-malloc.o)
                0x0302a958                free
 .text          0x0302a978        0x0 /usr/bin/../lib/gcc/arm-none-eabi/4.8.4/../../../../arm-none-eabi/lib/libg_s.a(lib_a-memmove.o)
 .text.memmove  0x0302a978       0x64 /usr/bin/../lib/gcc/arm-none-eabi/4.8.4/../../../../arm-none-eabi/lib/libg_s.a(lib_a-memmove.o)
                0x0302a978                memmove
 .text          0x0302a9dc        0x0 /usr/bin/../lib/gcc/arm-none-eabi/4.8.4/../../../../arm-none-eabi/lib/libg_s.a(lib_a-nano-freer.o)
 .text._free_r  0x0302a9dc      0x104 /usr/bin/../lib/gcc/arm-none-eabi/4.8.4/../../../../arm-none-eabi/lib/libg_s.a(lib_a-nano-freer.o)
                0x0302a9dc                _free_r
 .text          0x0302aae0        0x0 /usr/bin/../lib/gcc/arm-none-eabi/4.8.4/../../../../arm-none-eabi/lib/libg_s.a(lib_a-nano-mallocr.o)
 .text._malloc_r
                0x0302aae0      0x124 /usr/bin/../lib/gcc/arm-none-eabi/4.8.4/../../../../arm-none-eabi/lib/libg_s.a(lib_a-nano-mallocr.o)
                0x0302aae0                _malloc_r
 .text          0x0302ac04        0x0 /usr/bin/../lib/gcc/arm-none-eabi/4.8.4/../../../../arm-none-eabi/lib/libg_s.a(lib_a-rand.o)
 .text.srand    0x0302ac04       0xa4 /usr/bin/../lib/gcc/arm-none-eabi/4.8.4/../../../../arm-none-eabi/lib/libg_s.a(lib_a-rand.o)
                0x0302ac04                srand
 .text.rand     0x0302aca8       0xcc /usr/bin/../lib/gcc/arm-none-eabi/4.8.4/../../../../arm-none-eabi/lib/libg_s.a(lib_a-rand.o)
                0x0302aca8                rand
 .text          0x0302ad74        0x0 /usr/bin/../lib/gcc/arm-none-eabi/4.8.4/../../../../arm-none-eabi/lib/libg_s.a(lib_a-sbrkr.o)
 .text._sbrk_r  0x0302ad74       0x3c /usr/bin/../lib/gcc/arm-none-eabi/4.8.4/../../../../arm-none-eabi/lib/libg_s.a(lib_a-sbrkr.o)
                0x0302ad74                _sbrk_r
 .text          0x0302adb0        0x0 /usr/bin/../lib/gcc/arm-none-eabi/4.8.4/../../../../arm-none-eabi/lib/libg_s.a(lib_a-strcasecmp.o)
 .text.strcasecmp
                0x0302adb0       0x64 /usr/bin/../lib/gcc/arm-none-eabi/4.8.4/../../../../arm-none-eabi/lib/libg_s.a(lib_a-strcasecmp.o)
                0x0302adb0                strcasecmp
 .text          0x0302ae14        0x0 /usr/bin/../lib/gcc/arm-none-eabi/4.8.4/../../../../arm-none-eabi/lib/libg_s.a(lib_a-strcpy.o)
 .text.strcpy   0x0302ae14       0x18 /usr/bin/../lib/gcc/arm-none-eabi/4.8.4/../../../../arm-none-eabi/lib/libg_s.a(lib_a-strcpy.o)
                0x0302ae14                strcpy
 .text          0x0302ae2c        0x0 /usr/bin/../lib/gcc/arm-none-eabi/4.8.4/../../../../arm-none-eabi/lib/libg_s.a(lib_a-strncmp.o)
 .text.strncmp  0x0302ae2c       0x5c /usr/bin/../lib/gcc/arm-none-eabi/4.8.4/../../../../arm-none-eabi/lib/libg_s.a(lib_a-strncmp.o)
                0x0302ae2c                strncmp
 .text          0x0302ae88        0x0 /usr/bin/../lib/gcc/arm-none-eabi/4.8.4/../../../../arm-none-eabi/lib/libg_s.a(lib_a-strtol.o)
 .text._strtol_r
                0x0302ae88      0x1c0 /usr/bin/../lib/gcc/arm-none-eabi/4.8.4/../../../../arm-none-eabi/lib/libg_s.a(lib_a-strtol.o)
                0x0302ae88                _strtol_r
 .text.strtol   0x0302b048       0x2c /usr/bin/../lib/gcc/arm-none-eabi/4.8.4/../../../../arm-none-eabi/lib/libg_s.a(lib_a-strtol.o)
                0x0302b048                strtol
 .text          0x0302b074        0x0 /usr/bin/../lib/gcc/arm-none-eabi/4.8.4/../../../../arm-none-eabi/lib/libg_s.a(lib_a-strtoul.o)
 .text._strtoul_r
                0x0302b074      0x194 /usr/bin/../lib/gcc/arm-none-eabi/4.8.4/../../../../arm-none-eabi/lib/libg_s.a(lib_a-strtoul.o)
                0x0302b074                _strtoul_r
 .text.strtoul  0x0302b208       0x2c /usr/bin/../lib/gcc/arm-none-eabi/4.8.4/../../../../arm-none-eabi/lib/libg_s.a(lib_a-strtoul.o)
                0x0302b208                strtoul
 .text          0x0302b234        0x0 /usr/bin/../lib/gcc/arm-none-eabi/4.8.4/../../../../arm-none-eabi/lib/libg_s.a(lib_a-vsnprintf.o)
 .text._vsnprintf_r
                0x0302b234       0x84 /usr/bin/../lib/gcc/arm-none-eabi/4.8.4/../../../../arm-none-eabi/lib/libg_s.a(lib_a-vsnprintf.o)
                0x0302b234                _vsnprintf_r
                0x0302b234                _vsniprintf_r
 .text.vsnprintf
                0x0302b2b8       0x3c /usr/bin/../lib/gcc/arm-none-eabi/4.8.4/../../../../arm-none-eabi/lib/libg_s.a(lib_a-vsnprintf.o)
                0x0302b2b8                vsnprintf
                0x0302b2b8                vsniprintf
 .text          0x0302b2f4        0x0 /usr/bin/../lib/gcc/arm-none-eabi/4.8.4/../../../../arm-none-eabi/lib/libg_s.a(lib_a-ctype_.o)
 .text          0x0302b2f4        0x0 /usr/bin/../lib/gcc/arm-none-eabi/4.8.4/../../../../arm-none-eabi/lib/libg_s.a(lib_a-reent.o)
 .text.cleanup_glue
                0x0302b2f4       0x2c /usr/bin/../lib/gcc/arm-none-eabi/4.8.4/../../../../arm-none-eabi/lib/libg_s.a(lib_a-reent.o)
                0x0302b2f4                cleanup_glue
 .text._reclaim_reent
                0x0302b320      0x148 /usr/bin/../lib/gcc/arm-none-eabi/4.8.4/../../../../arm-none-eabi/lib/libg_s.a(lib_a-reent.o)
                0x0302b320                _reclaim_reent
 .text          0x0302b468        0x0 /usr/bin/../lib/gcc/arm-none-eabi/4.8.4/../../../../arm-none-eabi/lib/libg_s.a(lib_a-svfprintf.o)
 .text.__ssputs_r
                0x0302b468      0x124 /usr/bin/../lib/gcc/arm-none-eabi/4.8.4/../../../../arm-none-eabi/lib/libg_s.a(lib_a-svfprintf.o)
                0x0302b468                __ssputs_r
 .text.__ssprint_r
                0x0302b58c      0x188 /usr/bin/../lib/gcc/arm-none-eabi/4.8.4/../../../../arm-none-eabi/lib/libg_s.a(lib_a-svfprintf.o)
                0x0302b58c                __ssprint_r
 .text._svfprintf_r
                0x0302b714      0x30c /usr/bin/../lib/gcc/arm-none-eabi/4.8.4/../../../../arm-none-eabi/lib/libg_s.a(lib_a-svfprintf.o)
                0x0302b714                _svfprintf_r
                0x0302b714                _svfiprintf_r
 .text          0x0302ba20        0x0 /usr/bin/../lib/gcc/arm-none-eabi/4.8.4/../../../../arm-none-eabi/lib/libg_s.a(lib_a-vfprintf_i.o)
 .text._printf_common
                0x0302ba20      0x16c /usr/bin/../lib/gcc/arm-none-eabi/4.8.4/../../../../arm-none-eabi/lib/libg_s.a(lib_a-vfprintf_i.o)
                0x0302ba20                _printf_common
 .text._printf_i
                0x0302bb8c      0x3c8 /usr/bin/../lib/gcc/arm-none-eabi/4.8.4/../../../../arm-none-eabi/lib/libg_s.a(lib_a-vfprintf_i.o)
                0x0302bb8c                _printf_i
 .text          0x0302bf54        0x0 /usr/bin/../lib/gcc/arm-none-eabi/4.8.4/../../../../arm-none-eabi/lib/libg_s.a(lib_a-memchr-stub.o)
 .text.memchr   0x0302bf54       0x34 /usr/bin/../lib/gcc/arm-none-eabi/4.8.4/../../../../arm-none-eabi/lib/libg_s.a(lib_a-memchr-stub.o)
                0x0302bf54                memchr
 .text          0x0302bf88        0x0 /usr/bin/../lib/gcc/arm-none-eabi/4.8.4/../../../../arm-none-eabi/lib/libg_s.a(lib_a-nano-reallocr.o)
 .text._realloc_r
                0x0302bf88       0x7c /usr/bin/../lib/gcc/arm-none-eabi/4.8.4/../../../../arm-none-eabi/lib/libg_s.a(lib_a-nano-reallocr.o)
                0x0302bf88                _realloc_r
 .text          0x0302c004        0x0 /usr/bin/../lib/gcc/arm-none-eabi/4.8.4/../../../../arm-none-eabi/lib/libg_s.a(lib_a-nano-msizer.o)
 .text._malloc_usable_size_r
                0x0302c004       0x1c /usr/bin/../lib/gcc/arm-none-eabi/4.8.4/../../../../arm-none-eabi/lib/libg_s.a(lib_a-nano-msizer.o)
                0x0302c004                _malloc_usable_size_r
 *(EXCLUDE_FILE(icomlib.a:ssv_lib.o icomlib.a:sha256.o icomlib.a:sha384.o icomlib.a:sha512.o icomlib.a:x905.o icomlib.a:asn1.o icomlib.a:pstmsqrcomba.o icomlib.a:pstmmulcomba.o icomlib.a:pstmmonreduce.o icomlib.a:pstm.o contikilib.a:socket_driver.o icomlib.a:powersave.o icomlib.a:hw_regs_api.o icomlib.a:flash_api.o icomlib.a:drv_flash.o icomlib.a:xmem.o icomlib.a:soft_ap.o icomlib.a:debug-uart.o icomlib.a:dbg-puts.o icomlib.a:strformat.o icomlib.a:dbg-printf.o icomlib.a:rate_control.o icomlib.a:throughput.o icomlib.a:ssv6200_tx.o icomlib.a:ssv6200_rx.o icomlib.a:ssvradio.o icomlib.a:drv_pktbuf.o icomlib.a:packetbuf.o icomlib.a:ieee80211_rdc.o icomlib.a:ieee80211_net.o contikilib.a:tcpip.o icomlib.a:etimer.o icomlib.a:clock.o icomlib.a:timer.o contikilib.a:uip.o icomlib.a:AES_decrypt.o icomlib.a:boot-hiflying.o) .text.*)
 *(EXCLUDE_FILE(icomlib.a:ssv_lib.o icomlib.a:sha256.o icomlib.a:sha384.o icomlib.a:sha512.o icomlib.a:x905.o icomlib.a:asn1.o icomlib.a:pstmsqrcomba.o icomlib.a:pstmmulcomba.o icomlib.a:pstmmonreduce.o icomlib.a:pstm.o contikilib.a:socket_driver.o icomlib.a:powersave.o icomlib.a:hw_regs_api.o icomlib.a:flash_api.o icomlib.a:drv_flash.o icomlib.a:xmem.o icomlib.a:soft_ap.o icomlib.a:debug-uart.o icomlib.a:dbg-puts.o icomlib.a:strformat.o icomlib.a:dbg-printf.o icomlib.a:rate_control.o icomlib.a:throughput.o icomlib.a:ssv6200_tx.o icomlib.a:ssv6200_rx.o icomlib.a:ssvradio.o icomlib.a:drv_pktbuf.o icomlib.a:packetbuf.o icomlib.a:ieee80211_rdc.o icomlib.a:ieee80211_net.o contikilib.a:tcpip.o icomlib.a:etimer.o icomlib.a:clock.o icomlib.a:timer.o contikilib.a:uip.o icomlib.a:AES_decrypt.o icomlib.a:boot-hiflying.o) .rodata)
 .rodata        0x0302c020       0x3c icomlib.a(contiki-main.o)
 .rodata        0x0302c05c       0x14 icomlib.a(systemconf.o)
 .rodata        0x0302c070        0x6 icomlib.a(ieee80211_mac.o)
 .rodata        0x0302c076        0x6 accloud.a(zc_sec_engine.o)
 .rodata        0x0302c07c        0x4 accloud.a(zc_moudle_manag)
 .rodata        0x0302c080      0x100 ./thirdPartyLib/libairkiss.a(airkiss.o)
 *(EXCLUDE_FILE(icomlib.a:ssv_lib.o icomlib.a:sha256.o icomlib.a:sha384.o icomlib.a:sha512.o icomlib.a:x905.o icomlib.a:asn1.o icomlib.a:pstmsqrcomba.o icomlib.a:pstmmulcomba.o icomlib.a:pstmmonreduce.o icomlib.a:pstm.o contikilib.a:socket_driver.o icomlib.a:powersave.o icomlib.a:hw_regs_api.o icomlib.a:flash_api.o icomlib.a:drv_flash.o icomlib.a:xmem.o icomlib.a:soft_ap.o icomlib.a:debug-uart.o icomlib.a:dbg-puts.o icomlib.a:strformat.o icomlib.a:dbg-printf.o icomlib.a:rate_control.o icomlib.a:throughput.o icomlib.a:ssv6200_tx.o icomlib.a:ssv6200_rx.o icomlib.a:ssvradio.o icomlib.a:drv_pktbuf.o icomlib.a:packetbuf.o icomlib.a:ieee80211_rdc.o icomlib.a:ieee80211_net.o contikilib.a:tcpip.o icomlib.a:etimer.o icomlib.a:clock.o icomlib.a:timer.o contikilib.a:uip.o icomlib.a:AES_decrypt.o icomlib.a:boot-hiflying.o) .rodata*)
 .rodata.autostart_processes
                0x0302c180        0xc ssv6060-main.o
                0x0302c180                autostart_processes
 .rodata.str1.1
                0x0302c18c      0x286 ssv6060-main.o
                                0x299 (size before relaxing)
 .rodata.str1.1
                0x0302c412       0x61 icomlib.a(printf.o)
 .rodata.str1.1
                0x0302c473       0x46 icomlib.a(process.o)
 .rodata.str1.1
                0x0302c4b9     0x1210 icomlib.a(atcmd_icomm.o)
                               0x122a (size before relaxing)
 .rodata.str1.1
                0x0302d6c9       0x86 icomlib.a(contiki-main.o)
                                 0x98 (size before relaxing)
 *fill*         0x0302d74f        0x1 
 .rodata.uarts  0x0302d750        0x8 icomlib.a(drv_uart.o)
 .rodata.asic_rf_setting
                0x0302d758      0x1b8 icomlib.a(hw_init.o)
 .rodata.vt_tbl
                0x0302d910       0xc4 icomlib.a(hw_init.o)
 .rodata.str1.1
                0x0302d9d4       0xf7 icomlib.a(hw_init.o)
 *fill*         0x0302dacb        0x1 
 .rodata.phy_setting
                0x0302dacc      0x6f0 icomlib.a(hw_init.o)
 .rodata.__FUNCTION__.6682
                0x0302e1bc       0x14 icomlib.a(hw_init.o)
 .rodata.str1.1
                0x0302e1d0       0x9a icomlib.a(ssv_lib_slow.o)
                                 0x9c (size before relaxing)
 .rodata.__func__.6132
                0x0302e26a       0x19 icomlib.a(systemconf.o)
 .rodata.__func__.6121
                0x0302e283       0x18 icomlib.a(systemconf.o)
 .rodata.str1.1
                0x0302e29b      0x1a7 icomlib.a(systemconf.o)
 .rodata.__func__.6127
                0x0302e442       0x19 icomlib.a(systemconf.o)
 .rodata.str1.1
                0x0302e45b       0x35 icomlib.a(wdog_api.o)
 .rodata.str1.1
                0x0302e490       0x43 icomlib.a(bsp.o)
 .rodata.str1.1
                0x0302e4d3       0x19 icomlib.a(crypthw.o)
 .rodata.CSWTCH.67
                0x0302e4ec        0xe icomlib.a(dbg-atcmd-api.o)
 .rodata.str1.1
                0x0302e4fa      0x5e6 icomlib.a(dbg-atcmd-api.o)
                                0x6fa (size before relaxing)
 .rodata.RADIO_OP
                0x0302eae0       0xd0 icomlib.a(dbg-atcmd-api.o)
 .rodata.tssi_tbl_gain
                0x0302ebb0       0x24 icomlib.a(drv_phy.o)
                0x0302ebb0                tssi_tbl_gain
 .rodata.phy_cali_config_rxrc
                0x0302ebd4       0x14 icomlib.a(drv_phy.o)
                0x0302ebd4                phy_cali_config_rxrc
 .rodata.rfreg_tbl_papd_bypa_lievb
                0x0302ebe8       0x48 icomlib.a(drv_phy.o)
 .rodata.papd_tbl_x
                0x0302ec30       0x34 icomlib.a(drv_phy.o)
 .rodata.rfreg_tbl_txlo
                0x0302ec64       0x38 icomlib.a(drv_phy.o)
 .rodata.rfreg_tbl_papd_bypa_limpb
                0x0302ec9c       0x48 icomlib.a(drv_phy.o)
 .rodata.phyreg_tbl_init
                0x0302ece4      0x6f8 icomlib.a(drv_phy.o)
 .rodata.rfreg_tbl_papd_bypa_hp
                0x0302f3dc       0x48 icomlib.a(drv_phy.o)
 .rodata.phy_cali_config_tssi
                0x0302f424       0x14 icomlib.a(drv_phy.o)
                0x0302f424                phy_cali_config_tssi
 .rodata.str1.1
                0x0302f438       0x3e icomlib.a(drv_phy.o)
 *fill*         0x0302f476        0x2 
 .rodata.phy_cali_config_txiq
                0x0302f478       0x14 icomlib.a(drv_phy.o)
                0x0302f478                phy_cali_config_txiq
 .rodata.rfreg_tbl_config_bypa
                0x0302f48c       0x20 icomlib.a(drv_phy.o)
 .rodata.rfreg_tbl_papd_bypa_def
                0x0302f4ac       0x48 icomlib.a(drv_phy.o)
 .rodata.rfreg_tbl_rxrck
                0x0302f4f4       0x38 icomlib.a(drv_phy.o)
 .rodata.rfreg_tbl_rxdck
                0x0302f52c       0x38 icomlib.a(drv_phy.o)
 .rodata.phy_cali_config_txlo
                0x0302f564       0x14 icomlib.a(drv_phy.o)
                0x0302f564                phy_cali_config_txlo
 .rodata.rfreg_tbl_init
                0x0302f578      0x1a0 icomlib.a(drv_phy.o)
 .rodata.phy_cali_config_rxiq
                0x0302f718       0x14 icomlib.a(drv_phy.o)
                0x0302f718                phy_cali_config_rxiq
 .rodata.phy_cali_config_rxdc
                0x0302f72c       0x14 icomlib.a(drv_phy.o)
                0x0302f72c                phy_cali_config_rxdc
 .rodata.rfreg_tbl_config_byxtal
                0x0302f740      0x108 icomlib.a(drv_phy.o)
 .rodata.rfreg_tbl_txiqk
                0x0302f848       0x38 icomlib.a(drv_phy.o)
 .rodata.rfreg_tbl_tssi
                0x0302f880       0x38 icomlib.a(drv_phy.o)
 .rodata.phyreg_tbl_papd
                0x0302f8b8       0x38 icomlib.a(drv_phy.o)
 .rodata.rfreg_tbl_rxiqk
                0x0302f8f0       0x38 icomlib.a(drv_phy.o)
 .rodata.__func__.4231
                0x0302f928       0x16 icomlib.a(drv_pktbuf_slow)
 .rodata.str1.1
                0x0302f93e      0x538 icomlib.a(drv_pktbuf_slow)
                                0x53a (size before relaxing)
 .rodata.__func__.7354
                0x0302fe76       0x15 icomlib.a(ieee80211_mgmt.)
 .rodata.__func__.7361
                0x0302fe8b       0x11 icomlib.a(ieee80211_mgmt.)
 .rodata.__func__.7312
                0x0302fe9c        0xd icomlib.a(ieee80211_mgmt.)
 .rodata.__func__.7451
                0x0302fea9       0x11 icomlib.a(ieee80211_mgmt.)
 .rodata.str1.1
                0x0302feba      0x405 icomlib.a(ieee80211_mgmt.)
                                0x435 (size before relaxing)
 .rodata.__func__.7319
                0x030302bf       0x1b icomlib.a(ieee80211_mgmt.)
 .rodata.__func__.7327
                0x030302da       0x1b icomlib.a(ieee80211_mgmt.)
 .rodata.__func__.7336
                0x030302f5       0x18 icomlib.a(ieee80211_mgmt.)
 .rodata.__func__.7522
                0x0303030d       0x25 icomlib.a(ieee80211_mgmt.)
 .rodata.__func__.7347
                0x03030332       0x13 icomlib.a(ieee80211_mgmt.)
 .rodata.__func__.7489
                0x03030345       0x1e icomlib.a(ieee80211_mgmt.)
 .rodata.str1.1
                0x03030363      0x1e8 icomlib.a(wpa.o)
 .rodata.str1.1
                0x0303054b       0x28 icomlib.a(sys_status_api.)
 .rodata.str1.1
                0x03030573       0x5f icomlib.a(wep.o)
 .rodata.str1.1
                0x00000000        0x5 icomlib.a(shell-ping.o)
 .rodata.str1.1
                0x030305d2      0x135 icomlib.a(airkiss.o)
 *fill*         0x03030707        0x1 
 .rodata.akconf
                0x03030708       0x10 icomlib.a(airkiss.o)
                0x03030708                akconf
 .rodata.str1.1
                0x03030718      0x5ad icomlib.a(bsp_info.o)
                                0x5dd (size before relaxing)
 .rodata.str1.1
                0x03030cc5       0x23 icomlib.a(console.o)
 .rodata.str1.1
                0x03030ce8      0x198 icomlib.a(drv_gpio.o)
 .rodata.str1.1
                0x03030e80        0x2 icomlib.a(drv_pmu.o)
                                  0x6 (size before relaxing)
 *fill*         0x03030e82        0x2 
 .rodata.tbl_pmu_pad_cfg
                0x03030e84      0x1a0 icomlib.a(drv_pmu.o)
                0x03030e84                tbl_pmu_pad_cfg
 .rodata.str1.1
                0x03031024       0x4e icomlib.a(fence.o)
 .rodata.str1.1
                0x03031072       0x90 icomlib.a(smartComm.o)
 .rodata.broadcast_ethaddr.7231
                0x03031102        0x6 icomlib.a(smartComm.o)
 .rodata.broadcast_ethaddr.7235
                0x03031108        0x6 icomlib.a(smartComm.o)
 .rodata.str1.1
                0x0303110e      0x139 icomlib.a(smartConf.o)
                                0x1d5 (size before relaxing)
 .rodata.str1.1
                0x03031247       0xe4 icomlib.a(userSmart.o)
                                0x107 (size before relaxing)
 .rodata.__func__.6546
                0x0303132b        0xc icomlib.a(ieee80211_mac.o)
 .rodata.__func__.6552
                0x03031337        0xa icomlib.a(ieee80211_mac.o)
 .rodata.__func__.6560
                0x03031341       0x10 icomlib.a(ieee80211_mac.o)
 .rodata.broadcast_ethaddr
                0x03031351        0x6 icomlib.a(ieee80211_mac.o)
 .rodata.str1.1
                0x03031357       0x9d icomlib.a(ieee80211_mac.o)
                                 0xc1 (size before relaxing)
 .rodata.ieee80211_mac
                0x030313f4       0x1c icomlib.a(ieee80211_mac.o)
                0x030313f4                ieee80211_mac
 .rodata.str1.1
                0x03031410      0x110 icomlib.a(EAPOL.o)
 .rodata.__func__.8998
                0x03031520       0x12 icomapps.a(atcmd.o)
 .rodata.__func__.8966
                0x03031532       0x15 icomapps.a(atcmd.o)
 .rodata.__func__.8971
                0x03031547       0x13 icomapps.a(atcmd.o)
 .rodata.str1.1
                0x0303155a      0xa04 icomapps.a(atcmd.o)
                                0xbe2 (size before relaxing)
 .rodata.__func__.9151
                0x03031f5e       0x14 icomapps.a(atcmd.o)
 .rodata.__func__.9002
                0x03031f72       0x11 icomapps.a(atcmd.o)
 .rodata.__func__.9145
                0x03031f83        0xf icomapps.a(atcmd.o)
 *fill*         0x03031f92        0x2 
 .rodata.dataRateMapping
                0x03031f94       0x9c icomapps.a(atcmd.o)
 .rodata.CSWTCH.60
                0x03032030       0x14 icomapps.a(atcmd.o)
 .rodata.CSWTCH.62
                0x03032044       0x10 icomapps.a(atcmd.o)
 .rodata.__func__.9162
                0x03032054        0xf icomapps.a(atcmd.o)
 .rodata.str1.1
                0x03032063      0x247 icomapps.a(socket_app.o)
                                0x29d (size before relaxing)
 .rodata.__func__.6291
                0x030322aa       0x11 icomapps.a(soft_ap_init.o)
 .rodata.str1.1
                0x030322bb       0xfd icomapps.a(soft_ap_init.o)
 .rodata.str1.1
                0x030323b8      0x1c6 icomapps.a(tcp_server_demo)
                                0x25b (size before relaxing)
 .rodata.str1.1
                0x0303257e      0x118 icomapps.a(wifi_uart_demo.)
                                0x223 (size before relaxing)
 .rodata.str1.1
                0x03032696      0x39b icomapps.a(ota_api.o)
                                0x424 (size before relaxing)
 .rodata.str1.1
                0x03032a31       0x60 contikilib.a(dhcp_process.o)
                                 0x68 (size before relaxing)
 .rodata.__func__.7203
                0x03032a91        0xf contikilib.a(dhcps.o)
 .rodata.__func__.7227
                0x03032aa0       0x1a contikilib.a(dhcps.o)
 .rodata.__func__.7317
                0x03032aba        0xb contikilib.a(dhcps.o)
 .rodata.__func__.7283
                0x03032ac5        0x9 contikilib.a(dhcps.o)
 .rodata.magic_cookie
                0x03032ace        0x4 contikilib.a(dhcps.o)
 .rodata.str1.1
                0x03032ad2      0x412 contikilib.a(dhcps.o)
                                0x475 (size before relaxing)
 .rodata.__func__.7183
                0x03032ee4        0xf contikilib.a(dhcps.o)
 .rodata.__func__.7237
                0x03032ef3       0x1e contikilib.a(dhcps.o)
 .rodata.__func__.7195
                0x03032f11       0x10 contikilib.a(dhcps.o)
 .rodata.__func__.7312
                0x03032f21       0x23 contikilib.a(dhcps.o)
 .rodata.str1.1
                0x03032f44        0xd contikilib.a(resolv.o)
 .rodata.str1.1
                0x03032f51       0x13 contikilib.a(simple-udp.o)
 .rodata.broadcast_ethaddr
                0x03032f64        0x6 contikilib.a(uip_arp.o)
 .rodata.str1.1
                0x03032f6a       0x47 contikilib.a(uip_arp.o)
                                 0x5d (size before relaxing)
 .rodata.str1.1
                0x03032fb1      0x183 contikilib.a(ntp_client.o)
                                0x1af (size before relaxing)
 .rodata.str1.1
                0x03033134      0x189 contikilib.a(dhcpc.o)
 .rodata.str1.1
                0x030332bd       0xaa accloud.a(zc_common.o)
 .rodata.str1.1
                0x03033367       0x41 accloud.a(zc_configuratio)
                                 0x53 (size before relaxing)
 .rodata.str1.1
                0x030333a8       0x18 accloud.a(zc_message_queu)
 .rodata.str1.1
                0x030333c0      0x257 accloud.a(zc_protocol_con)
 .rodata.str1.1
                0x03033617       0x7f accloud.a(zc_sec_engine.o)
 .rodata.str1.1
                0x03033696       0x37 accloud.a(zc_timer.o)
 .rodata.str1.1
                0x030336cd       0x68 accloud.a(zc_hf_adpter.o)
                                 0x78 (size before relaxing)
 .rodata.str1.1
                0x03033735       0x14 accloud.a(ac_hal.o)
 *fill*         0x03033749        0x3 
 .rodata.Te3    0x0303374c      0x400 accloud.a(aes_core.o)
 .rodata.Td0    0x03033b4c      0x400 accloud.a(aes_core.o)
 .rodata.Td1    0x03033f4c      0x400 accloud.a(aes_core.o)
 .rodata.rcon   0x0303434c       0x28 accloud.a(aes_core.o)
 .rodata.Td3    0x03034374      0x400 accloud.a(aes_core.o)
 .rodata.Td4    0x03034774      0x400 accloud.a(aes_core.o)
 .rodata.Te0    0x03034b74      0x400 accloud.a(aes_core.o)
 .rodata.Te1    0x03034f74      0x400 accloud.a(aes_core.o)
 .rodata.Te2    0x03035374      0x400 accloud.a(aes_core.o)
 .rodata.Td2    0x03035774      0x400 accloud.a(aes_core.o)
 .rodata.Te4    0x03035b74      0x400 accloud.a(aes_core.o)
 .rodata.small_prime
                0x03035f74      0x2a0 accloud.a(bignum.o)
 .rodata.str1.1
                0x03036214       0x46 ./thirdPartyLib/libairkiss.a(airkiss.o)
 .rodata.str1.1
                0x00000000       0x46 /usr/bin/../lib/gcc/arm-none-eabi/4.8.4/../../../../arm-none-eabi/lib/libg_s.a(lib_a-impure.o)
                                  0x2 (size before relaxing)
 *fill*         0x0303625a        0x2 
 .rodata._global_impure_ptr
                0x0303625c        0x4 /usr/bin/../lib/gcc/arm-none-eabi/4.8.4/../../../../arm-none-eabi/lib/libg_s.a(lib_a-impure.o)
                0x0303625c                _global_impure_ptr
 .rodata._ctype_
                0x03036260      0x101 /usr/bin/../lib/gcc/arm-none-eabi/4.8.4/../../../../arm-none-eabi/lib/libg_s.a(lib_a-ctype_.o)
                0x03036260                _ctype_
 .rodata.str1.1
                0x03036361       0x11 /usr/bin/../lib/gcc/arm-none-eabi/4.8.4/../../../../arm-none-eabi/lib/libg_s.a(lib_a-svfprintf.o)
 .rodata.str1.1
                0x03036372       0x22 /usr/bin/../lib/gcc/arm-none-eabi/4.8.4/../../../../arm-none-eabi/lib/libg_s.a(lib_a-vfprintf_i.o)
 *(.glue_7)
 .glue_7        0x00000000        0x0 linker stubs
 *(.glue_7t)
 .glue_7t       0x00000000        0x0 linker stubs
 *(.ARM.extab)
 .ARM.extab     0x03036394        0x0 /usr/bin/../lib/gcc/arm-none-eabi/4.8.4/libgcc.a(_divdi3.o)
 .ARM.extab     0x03036394        0x0 /usr/bin/../lib/gcc/arm-none-eabi/4.8.4/libgcc.a(_udivdi3.o)
 *(.gnu.linkonce.armextab.*)
 *(.vfp11_veneer)
 .vfp11_veneer  0x00000000        0x0 linker stubs
 *(.v4_bx)
 .v4_bx         0x00000000        0x0 linker stubs
 *(.iplt)
 .iplt          0x00000000        0x0 /tmp/ccmDjWLP.o
 *(.rel.dyn)
 *(.rel.iplt)
 .rel.iplt      0x00000000        0x0 /tmp/ccmDjWLP.o
                0x03036394                . = ALIGN (0x4)

prog_in_sram    0x02000000     0xe728 load address 0x03036394
 *(.startup_clone)
 .startup_clone
                0x02000000       0x50 /tmp/ccmDjWLP.o
 *(keep_in_sram)
 keep_in_sram   0x02000050       0x9c icomlib.a(etimer.o)
                0x02000050                etimer_request_poll
                0x0200005c                etimer_set
                0x02000074                etimer_set_icomm
                0x020000d4                etimer_pending
 keep_in_sram   0x020000ec       0x5c icomlib.a(printf.o)
                0x020000ec                icomprintf
 keep_in_sram   0x02000148      0x49c icomlib.a(process.o)
                0x02000304                process_exit
                0x02000314                process_init
                0x0200036c                process_nevents
                0x0200038c                process_post
                0x020003fc                process_post_synch
                0x02000418                process_start
                0x02000478                process_poll
                0x020004a4                process_is_running
                0x020004b4                process_run
 keep_in_sram   0x020005e4       0x24 icomlib.a(contiki-main.o)
                0x020005e4                process_loop
 keep_in_sram   0x02000608       0xbc icomlib.a(drv_uart.o)
                0x02000608                drv_uart_rx_ready
                0x02000628                drv_uart_rx
                0x02000658                drv_uart_tx
                0x0200068c                drv_uart_40M
                0x0200069c                drv_uart_26M
                0x020006ac                drv_uart_rx_0
 keep_in_sram   0x020006c4      0x268 icomlib.a(hw_init.o)
                0x020006c4                ssv_delay
                0x020006dc                ssv6xxx_rf_enable
                0x020006f0                ssv6xxx_rf_disable
                0x02000704                ssv6xxx_set_channel
 keep_in_sram   0x0200092c       0x70 icomlib.a(ssv_lib.o)
                0x0200092c                dma_memcpy
 keep_in_sram   0x0200099c      0x10c icomlib.a(swpwm.o)
                0x0200099c                do_pwm
 keep_in_sram   0x02000aa8       0xb8 icomlib.a(xmem.o)
                0x02000aa8                cabrio_flash_read_erase_write_in_sector_range
 keep_in_sram   0x02000b60      0x2f0 icomlib.a(crypthw.o)
                0x02000b60                sram_del_key
                0x02000c18                sram_set_key
                0x02000ce4                sram_set_wep
                0x02000d3c                wpa_drv_set_key
 keep_in_sram   0x02000e50      0x268 icomlib.a(drv_pktbuf.o)
                0x02000e50                ssv6xxx_mcu_input_full
                0x02000e7c                setpacketbuf_len
                0x02000e94                ssv6xxx_pbuf_alloc
                0x02000f08                getpacketbuffer
                0x02000f90                ssv6xxx_pbuf_id_free
                0x02001040                ssv6xxx_pbuf_free
 keep_in_sram   0x020010b8      0x340 icomlib.a(hash_alg.o)
                0x020010b8                hmac_md5_cal
                0x02001108                hmac_sha1_cal
                0x02001158                prf_sha1
                0x02001254                pbkdf2_sha1_f
                0x02001358                pbkdf2_sha1
 keep_in_sram   0x020013f8      0x16c icomlib.a(hmac_md5.o)
                0x020013f8                hmac_md5_init
                0x020014c8                hmac_md5
 keep_in_sram   0x02001564      0x224 icomlib.a(hmac_sha1.o)
                0x02001564                hmac_sha1_init
                0x02001668                hmac_sha1_end
 keep_in_sram   0x02001788      0x55c icomlib.a(ieee80211_mgmt.)
                0x02001788                getAvailableIndex
                0x02001798                is_assoc_req
                0x020017a8                is_assoc_resp
                0x020017bc                is_reassoc_req
                0x020017d0                is_reassoc_resp
                0x020017e4                is_probe_req
                0x020017f8                is_probe_resp
                0x0200180c                is_beacon
                0x02001820                is_atim
                0x02001834                is_disassoc
                0x02001848                is_auth
                0x0200185c                is_deauth
                0x02001870                find_eid_channel
                0x020018bc                pre_set
                0x020018d8                post_set
                0x020018f0                updateRssiAndLevel
                0x020019a4                rx_process_check_ap
                0x02001c28                rx_process_mgmt
 keep_in_sram   0x02001ce4       0x34 icomlib.a(ieee80211_rdc.o)
 keep_in_sram   0x02001d18      0x25c icomlib.a(irq.o)
                0x02001d18                irq_peri_handler
                0x02001db0                irq_mask_disable
                0x02001de8                irq_mask_enable
                0x02001e20                irq_disable
                0x02001e38                irq_enable
                0x02001e50                irq_dispatch
                0x02001f4c                do_irq
 keep_in_sram   0x02001f74       0xa4 icomlib.a(rate_control.o)
                0x02001f74                getctrlrate
                0x02001f88                navcalculate
 keep_in_sram   0x02002018      0x280 icomlib.a(sha1.o)
                0x02002018                sha1hw_init
                0x02002074                sha1hw_input
                0x02002124                sha1hw_end
                0x02002240                sha1hw_end2
 keep_in_sram   0x02002298      0xc30 icomlib.a(soft_ap.o)
                0x02002298                softap_set_peer_mac
                0x02002304                softap_tx_beacon
                0x020025d8                softap_rx_probe_request
                0x0200267c                softap_rx_authenticate
                0x020026cc                softap_rx_assoc_req
                0x020027a4                softap_tx_probe_response
                0x02002a50                softap_tx_authenticate
                0x02002b44                softap_tx_assoc_response
                0x02002cbc                softap_rx_process_data
                0x02002d14                softap_rx_process
 keep_in_sram   0x02002ec8       0x9c icomlib.a(ssv6200_rx.o)
                0x02002f34                clearRxBuffer
 keep_in_sram   0x02002f64      0x7a4 icomlib.a(AES_decrypt.o)
                0x02002f78                AES_set_key
                0x02003124                AES_decrypt
                0x02003358                AES_convert_key
                0x02003424                aes_setkey
                0x0200345c                aes_decrypt
                0x020034d0                aes_wrap
                0x020035bc                aes_unwrap
 keep_in_sram   0x02003708      0x150 icomlib.a(arc4.o)
                0x02003708                arc4_setkey
                0x02003780                arc4_xor
                0x02003800                arc4_skip
 keep_in_sram   0x02003858      0x15c icomlib.a(md5.o)
                0x02003858                MD5Init
                0x0200388c                MD5Update
                0x02003938                MD5Final
 keep_in_sram   0x020039b4       0xf4 icomlib.a(airkiss.o)
                0x020039b4                airKissRecv
                0x020039dc                rx_process_airkiss
 keep_in_sram   0x02003aa8      0x19c icomlib.a(console.o)
                0x02003aa8                drv_rx_txt
                0x02003c20                cosnole_rx_handler
 keep_in_sram   0x02003c44      0x11c icomlib.a(drv_pmu.o)
                0x02003c44                drv_pmu_powersave_mode
                0x02003cb0                drv_pmu_normal_mode
                0x02003d34                drv_reset_pstate_txsend
                0x02003d4c                drv_reset_pstate_all
 keep_in_sram   0x02003d60      0x138 icomlib.a(smartComm.o)
                0x02003d60                getSmartCmdStatus
                0x02003d7c                getSendToPhoneDataStatus
                0x02003d8c                isSmartConfigDataFromPhone
                0x02003e10                isSmartConfigDataFromAP
 keep_in_sram   0x02003e98      0x8fc icomlib.a(smartConf.o)
                0x02003e98                rx_process_smartConf
 keep_in_sram   0x02004794       0x4c icomlib.a(userSmart.o)
                0x02004794                callBackFrame
                0x020047b0                rx_process_userSmart
 keep_in_sram   0x020047e0      0x7a4 icomlib.a(ieee80211_mac.o)
                0x02004b4c                is_protectframe
                0x02004b58                is_data
                0x02004b6c                is_mgmt
                0x02004b7c                tx_pspoll
                0x02004c1c                rx_process_data
                0x02004e6c                tx_nulldata_req
 keep_in_sram   0x02004f84      0x650 icomlib.a(ssv6200_tx.o)
                0x02004f84                ssv6200_transmit
                0x02004fd0                ssv6200_force_1M
                0x0200503c                ssv6200_set_nav
                0x0200514c                ssv6200_set_descriptor
 keep_in_sram   0x020055d4       0x30 icomlib.a(drv_mbox.o)
                0x020055d4                drv_mailbox_cpu_ff
 keep_in_sram   0x02005604       0x4c icomlib.a(serial_api.o)
                0x02005604                SerialWrite
                0x02005648                SerialRead
 keep_in_sram   0x02005650      0x360 contikilib.a(uip_arp.o)
                0x02005650                uip_arp_arpin
                0x020057fc                uip_arp_out
 keep_in_sram   0x020059b0       0xec contikilib.a(uip-udp-packet.)
                0x020059b0                uip_udp_packet_send
                0x02005a20                uip_udp_packet_sendto
 icomlib.a:AES_decrypt.o(.text .text* .rodata .rodata*)
 .text          0x02005a9c        0x0 icomlib.a(AES_decrypt.o)
 .text.AES_encrypt
                0x02005a9c      0x18c icomlib.a(AES_decrypt.o)
                0x02005a9c                AES_encrypt
 .text.aes_encrypt
                0x02005c28       0x74 icomlib.a(AES_decrypt.o)
                0x02005c28                aes_encrypt
 .rodata.aes_sbox
                0x02005c9c      0x100 icomlib.a(AES_decrypt.o)
 .rodata.str1.1
                0x02005d9c       0x12 icomlib.a(AES_decrypt.o)
 .rodata.Rcon   0x02005dae       0x1e icomlib.a(AES_decrypt.o)
 .rodata.aes_isbox
                0x02005dcc      0x100 icomlib.a(AES_decrypt.o)
 contikilib.a:uip.o(.text .text* .rodata .rodata*)
 .text          0x02005ecc        0x0 contikilib.a(uip.o)
 .text.chksum   0x02005ecc       0x74 contikilib.a(uip.o)
 .text.upper_layer_chksum
                0x02005f40       0x70 contikilib.a(uip.o)
 .text.uip_setipid
                0x02005fb0       0x18 contikilib.a(uip.o)
                0x02005fb0                uip_setipid
 .text.uip_add32
                0x02005fc8       0xa8 contikilib.a(uip.o)
                0x02005fc8                uip_add32
 .text.unlikely.uip_add_rcv_nxt
                0x02006070       0x4c contikilib.a(uip.o)
 .text.uip_chksum
                0x020060bc       0x2c contikilib.a(uip.o)
                0x020060bc                uip_chksum
 .text.uip_ipchksum
                0x020060e8       0x38 contikilib.a(uip.o)
                0x020060e8                uip_ipchksum
 .text.uip_tcpchksum
                0x02006120        0x8 contikilib.a(uip.o)
                0x02006120                uip_tcpchksum
 .text.uip_udpchksum
                0x02006128        0x8 contikilib.a(uip.o)
                0x02006128                uip_udpchksum
 .text.uip_init
                0x02006130       0xb8 contikilib.a(uip.o)
                0x02006130                uip_init
 .text.uip_checktcpsocket
                0x020061e8       0x1c contikilib.a(uip.o)
                0x020061e8                uip_checktcpsocket
 .text.uip_checkudpsocket
                0x02006204       0x24 contikilib.a(uip.o)
                0x02006204                uip_checkudpsocket
 .text.uip_printifconfig
                0x02006228       0x84 contikilib.a(uip.o)
                0x02006228                uip_printifconfig
 .text.uip_gettcpconn
                0x020062ac       0x20 contikilib.a(uip.o)
                0x020062ac                uip_gettcpconn
 .text.uip_getudpconn
                0x020062cc       0x28 contikilib.a(uip.o)
                0x020062cc                uip_getudpconn
 .text.uip_setcurrtcpconn
                0x020062f4       0x10 contikilib.a(uip.o)
                0x020062f4                uip_setcurrtcpconn
 .text.uip_getcurrtcpconn
                0x02006304       0x10 contikilib.a(uip.o)
                0x02006304                uip_getcurrtcpconn
 .text.uip_getcurrudpconn
                0x02006314       0x10 contikilib.a(uip.o)
                0x02006314                uip_getcurrudpconn
 .text.uip_connect
                0x02006324      0x1d8 contikilib.a(uip.o)
                0x02006324                uip_connect
 .text.uip_udp_new
                0x020064fc      0x13c contikilib.a(uip.o)
                0x020064fc                uip_udp_new
 .text.uip_unlisten
                0x02006638       0x64 contikilib.a(uip.o)
                0x02006638                uip_unlisten
 .text.uip_listen
                0x0200669c       0x60 contikilib.a(uip.o)
                0x0200669c                uip_listen
 .text.uip_process
                0x020066fc     0x1620 contikilib.a(uip.o)
                0x020066fc                uip_process
 .text.uip_force_send
                0x02007d1c       0x38 contikilib.a(uip.o)
                0x02007d1c                uip_force_send
 .text.uip_htons
                0x02007d54       0x14 contikilib.a(uip.o)
                0x02007d54                uip_htons
 .text.uip_htonl
                0x02007d68       0x28 contikilib.a(uip.o)
                0x02007d68                uip_htonl
 .text.uip_send
                0x02007d90       0x5c contikilib.a(uip.o)
                0x02007d90                uip_send
 .text.uip_set_hostaddr
                0x02007dec       0x1c contikilib.a(uip.o)
                0x02007dec                uip_set_hostaddr
 .rodata.uip_broadcast_addr
                0x02007e08        0x4 contikilib.a(uip.o)
                0x02007e08                uip_broadcast_addr
 .rodata.uip_all_zeroes_addr
                0x02007e0c        0x4 contikilib.a(uip.o)
                0x02007e0c                uip_all_zeroes_addr
 .rodata.str1.1
                0x02007e10       0x92 contikilib.a(uip.o)
 icomlib.a:timer.o(.text .text* .rodata .rodata*)
 .text          0x02007ea2        0x0 icomlib.a(timer.o)
 *fill*         0x02007ea2        0x2 
 .text.timer_set
                0x02007ea4       0x1c icomlib.a(timer.o)
                0x02007ea4                timer_set
 .text.timer_reset
                0x02007ec0       0x20 icomlib.a(timer.o)
                0x02007ec0                timer_reset
 .text.timer_restart
                0x02007ee0       0x14 icomlib.a(timer.o)
                0x02007ee0                timer_restart
 .text.timer_expired
                0x02007ef4       0x3c icomlib.a(timer.o)
                0x02007ef4                timer_expired
 .text.timer_remaining
                0x02007f30       0x28 icomlib.a(timer.o)
                0x02007f30                timer_remaining
 icomlib.a:clock.o(.text .text* .rodata .rodata*)
 .text          0x02007f58        0x0 icomlib.a(clock.o)
 .text.do_clock
                0x02007f58       0x48 icomlib.a(clock.o)
                0x02007f58                do_clock
 .text.clock_init
                0x02007fa0       0x64 icomlib.a(clock.o)
                0x02007fa0                clock_init
 .text.clock_time
                0x02008004       0x10 icomlib.a(clock.o)
                0x02008004                clock_time
 .text.clock_seconds
                0x02008014       0x24 icomlib.a(clock.o)
                0x02008014                clock_seconds
 .text.clock_delay
                0x02008038        0x4 icomlib.a(clock.o)
                0x02008038                clock_delay
 .text.update_ntp_time
                0x0200803c       0x3c icomlib.a(clock.o)
                0x0200803c                update_ntp_time
 .text.get_ntp_time
                0x02008078       0x48 icomlib.a(clock.o)
                0x02008078                get_ntp_time
 icomlib.a:etimer.o(.text .text* .rodata .rodata*)
 .text          0x020080c0        0x0 icomlib.a(etimer.o)
 .text.update_time
                0x020080c0       0xa4 icomlib.a(etimer.o)
 .text.process_thread_etimer_process
                0x02008164      0x124 icomlib.a(etimer.o)
 .text.add_timer
                0x02008288       0x6c icomlib.a(etimer.o)
 .text.etimer_reset
                0x020082f4       0x18 icomlib.a(etimer.o)
                0x020082f4                etimer_reset
 .text.etimer_restart
                0x0200830c       0x18 icomlib.a(etimer.o)
                0x0200830c                etimer_restart
 .text.etimer_adjust
                0x02008324       0x14 icomlib.a(etimer.o)
                0x02008324                etimer_adjust
 .text.etimer_expired
                0x02008338       0x10 icomlib.a(etimer.o)
                0x02008338                etimer_expired
 .text.etimer_expiration_time
                0x02008348       0x1c icomlib.a(etimer.o)
                0x02008348                etimer_expiration_time
 .text.etimer_start_time
                0x02008364        0x8 icomlib.a(etimer.o)
                0x02008364                etimer_start_time
 .text.etimer_next_expiration_time
                0x0200836c       0x30 icomlib.a(etimer.o)
                0x0200836c                etimer_next_expiration_time
 .text.etimer_stop
                0x0200839c       0x58 icomlib.a(etimer.o)
                0x0200839c                etimer_stop
 .rodata.str1.1
                0x020083f4        0xc icomlib.a(etimer.o)
 contikilib.a:tcpip.o(.text .text* .rodata .rodata*)
 .text          0x02008400        0x0 contikilib.a(tcpip.o)
 .text.start_periodic_tcp_timer
                0x02008400       0x24 contikilib.a(tcpip.o)
 .text.tcpip_output
                0x02008424       0x24 contikilib.a(tcpip.o)
                0x02008424                tcpip_output
 .text.process_thread_tcpip_process
                0x02008448      0x37c contikilib.a(tcpip.o)
 .text.tcpip_set_outputfunc
                0x020087c4       0x10 contikilib.a(tcpip.o)
                0x020087c4                tcpip_set_outputfunc
 .text.change_periodic_tcp_timer
                0x020087d4       0x28 contikilib.a(tcpip.o)
                0x020087d4                change_periodic_tcp_timer
 .text.tcp_connect_icomm
                0x020087fc       0x54 contikilib.a(tcpip.o)
                0x020087fc                tcp_connect_icomm
 .text.tcp_listen_icomm
                0x02008850       0x70 contikilib.a(tcpip.o)
                0x02008850                tcp_listen_icomm
 .text.tcp_unlisten
                0x020088c0       0x6c contikilib.a(tcpip.o)
                0x020088c0                tcp_unlisten
 .text.tcp_listen
                0x0200892c       0x74 contikilib.a(tcpip.o)
                0x0200892c                tcp_listen
 .text.tcp_attach
                0x020089a0       0x18 contikilib.a(tcpip.o)
                0x020089a0                tcp_attach
 .text.udp_attach
                0x020089b8       0x18 contikilib.a(tcpip.o)
                0x020089b8                udp_attach
 .text.udp_new  0x020089d0       0x34 contikilib.a(tcpip.o)
                0x020089d0                udp_new
 .text.udp_new_icomm
                0x02008a04       0x30 contikilib.a(tcpip.o)
                0x02008a04                udp_new_icomm
 .text.udp_broadcast_new
                0x02008a34       0x44 contikilib.a(tcpip.o)
                0x02008a34                udp_broadcast_new
 .text.tcpip_input
                0x02008a78       0x30 contikilib.a(tcpip.o)
                0x02008a78                tcpip_input
 .text.tcpip_poll_udp
                0x02008aa8       0x48 contikilib.a(tcpip.o)
                0x02008aa8                tcpip_poll_udp
 .text.tcpip_poll_tcp
                0x02008af0       0x14 contikilib.a(tcpip.o)
                0x02008af0                tcpip_poll_tcp
 .text.process_thread_TCP_arpcheck_process
                0x02008b04      0x13c contikilib.a(tcpip.o)
 .text.tcp_connect
                0x02008c40       0x44 contikilib.a(tcpip.o)
                0x02008c40                tcp_connect
 .text.tcpip_uipcall
                0x02008c84      0x118 contikilib.a(tcpip.o)
                0x02008c84                tcpip_uipcall
 .rodata.str1.1
                0x02008d9c       0xce contikilib.a(tcpip.o)
 icomlib.a:ieee80211_net.o(.text .text* .rodata .rodata*)
 .text          0x02008e6a        0x0 icomlib.a(ieee80211_net.o)
 *fill*         0x02008e6a        0x2 
 .text.input    0x02008e6c       0xec icomlib.a(ieee80211_net.o)
 .text.init     0x02008f58        0xc icomlib.a(ieee80211_net.o)
 .text.packet_sent
                0x02008f64       0x1c icomlib.a(ieee80211_net.o)
 .text.output   0x02008f80       0x8c icomlib.a(ieee80211_net.o)
 .text.arp_packet_sent
                0x0200900c       0x64 icomlib.a(ieee80211_net.o)
                0x0200900c                arp_packet_sent
 .rodata.str1.1
                0x02009070       0xd7 icomlib.a(ieee80211_net.o)
 *fill*         0x02009147        0x1 
 .rodata.ieee80211_net
                0x02009148        0xc icomlib.a(ieee80211_net.o)
                0x02009148                ieee80211_net
 icomlib.a:ieee80211_rdc.o(.text .text* .rodata .rodata*)
 .text          0x02009154        0x0 icomlib.a(ieee80211_rdc.o)
 .text.send_list
                0x02009154        0xc icomlib.a(ieee80211_rdc.o)
 .text.on       0x02009160       0x18 icomlib.a(ieee80211_rdc.o)
 .text.off      0x02009178       0x18 icomlib.a(ieee80211_rdc.o)
 .text.channel_check_interval
                0x02009190        0x8 icomlib.a(ieee80211_rdc.o)
 .text.init     0x02009198        0x4 icomlib.a(ieee80211_rdc.o)
 .rodata.ieee80211_rdc
                0x0200919c       0x20 icomlib.a(ieee80211_rdc.o)
                0x0200919c                ieee80211_rdc
 .rodata.str1.1
                0x020091bc        0xe icomlib.a(ieee80211_rdc.o)
 icomlib.a:packetbuf.o(.text .text* .rodata .rodata*)
 icomlib.a:drv_pktbuf.o(.text .text* .rodata .rodata*)
 .text          0x020091ca        0x0 icomlib.a(drv_pktbuf.o)
 *fill*         0x020091ca        0x2 
 .text.ssv6xxx_pbuf_empty
                0x020091cc       0x20 icomlib.a(drv_pktbuf.o)
                0x020091cc                ssv6xxx_pbuf_empty
 .text.ssv6xxx_pbuf_full
                0x020091ec       0x24 icomlib.a(drv_pktbuf.o)
                0x020091ec                ssv6xxx_pbuf_full
 .text.ssv6xxx_pbuf_push
                0x02009210       0xec icomlib.a(drv_pktbuf.o)
                0x02009210                ssv6xxx_pbuf_push
 .text.ssv6xxx_pbuf_pop
                0x020092fc       0xcc icomlib.a(drv_pktbuf.o)
                0x020092fc                ssv6xxx_pbuf_pop
 .rodata.__func__.4268
                0x020093c8       0x11 icomlib.a(drv_pktbuf.o)
 .rodata.__func__.4274
                0x020093d9       0x15 icomlib.a(drv_pktbuf.o)
 .rodata.str1.1
                0x020093ee       0x92 icomlib.a(drv_pktbuf.o)
 .rodata.__func__.4262
                0x02009480       0x12 icomlib.a(drv_pktbuf.o)
 icomlib.a:ssvradio.o(.text .text* .rodata .rodata*)
 .text          0x02009492        0x0 icomlib.a(ssvradio.o)
 *fill*         0x02009492        0x2 
 .text.ssv6200_radio_prepare
                0x02009494        0x8 icomlib.a(ssvradio.o)
 .text.ssv6200_radio_transmit
                0x0200949c        0x8 icomlib.a(ssvradio.o)
 .text.ssv6200_radio_read
                0x020094a4        0x8 icomlib.a(ssvradio.o)
 .text.ssv6200_radio_channel_clear
                0x020094ac        0x8 icomlib.a(ssvradio.o)
 .text.ssv6200_radio_receiving_packet
                0x020094b4        0x8 icomlib.a(ssvradio.o)
 .text.ssv6200_radio_pending_packet
                0x020094bc        0x8 icomlib.a(ssvradio.o)
 .text.process_thread_ssv6200_radio_receive_process
                0x020094c4      0x1b8 icomlib.a(ssvradio.o)
 .text.ssv6200_radio_off
                0x0200967c       0x10 icomlib.a(ssvradio.o)
 .text.ssv6200_radio_on
                0x0200968c       0x10 icomlib.a(ssvradio.o)
 .text.ssv6200_radio_send
                0x0200969c       0x38 icomlib.a(ssvradio.o)
 .text.ssv6200_radio_init
                0x020096d4       0x44 icomlib.a(ssvradio.o)
 .text.ssv6200_radio_retrans
                0x02009718       0x70 icomlib.a(ssvradio.o)
                0x02009718                ssv6200_radio_retrans
 .rodata.__func__.6185
                0x02009788       0x2d icomlib.a(ssvradio.o)
 .rodata.str1.1
                0x020097b5       0x34 icomlib.a(ssvradio.o)
                                 0x57 (size before relaxing)
 *fill*         0x020097e9        0x3 
 .rodata.ssv6200_radio_driver
                0x020097ec       0x28 icomlib.a(ssvradio.o)
                0x020097ec                ssv6200_radio_driver
 icomlib.a:ssv6200_rx.o(.text .text* .rodata .rodata*)
 .text          0x02009814        0x0 icomlib.a(ssv6200_rx.o)
 .text.is_tx_active
                0x02009814       0x50 icomlib.a(ssv6200_rx.o)
                0x02009814                is_tx_active
 .text.retx_clear_all
                0x02009864       0x14 icomlib.a(ssv6200_rx.o)
                0x02009864                retx_clear_all
 .text.retx_delete_index
                0x02009878       0x70 icomlib.a(ssv6200_rx.o)
                0x02009878                retx_delete_index
 .text.retx_fail_handle
                0x020098e8       0x68 icomlib.a(ssv6200_rx.o)
                0x020098e8                retx_fail_handle
 .text.retx_add_queue
                0x02009950       0x50 icomlib.a(ssv6200_rx.o)
                0x02009950                retx_add_queue
 .text.retx_delete_queue
                0x020099a0       0x6c icomlib.a(ssv6200_rx.o)
                0x020099a0                retx_delete_queue
 .text.ssv6200_dump_rx_descriptor
                0x02009a0c       0x44 icomlib.a(ssv6200_rx.o)
                0x02009a0c                ssv6200_dump_rx_descriptor
 .text.ssv6200_dump_null_data_mac
                0x02009a50        0x4 icomlib.a(ssv6200_rx.o)
                0x02009a50                ssv6200_dump_null_data_mac
 .text.filterPacketBuffer
                0x02009a54      0x168 icomlib.a(ssv6200_rx.o)
                0x02009a54                filterPacketBuffer
 .text.dropDataInSmartComm
                0x02009bbc      0x1a0 icomlib.a(ssv6200_rx.o)
                0x02009bbc                dropDataInSmartComm
 .text.rx_data_clear
                0x02009d5c       0x30 icomlib.a(ssv6200_rx.o)
                0x02009d5c                rx_data_clear
 .text.drop_packet
                0x02009d8c       0x30 icomlib.a(ssv6200_rx.o)
                0x02009d8c                drop_packet
 .text.STA_mac_rx_handler
                0x02009dbc      0x2ac icomlib.a(ssv6200_rx.o)
                0x02009dbc                STA_mac_rx_handler
 .text.AP_mac_rx_handler
                0x0200a068      0x140 icomlib.a(ssv6200_rx.o)
                0x0200a068                AP_mac_rx_handler
 .rodata.str1.1
                0x0200a1a8      0x128 icomlib.a(ssv6200_rx.o)
 .rodata.__func__.6478
                0x0200a2d0       0x14 icomlib.a(ssv6200_rx.o)
 .rodata.broadcast_ethaddr.6475
                0x0200a2e4        0x6 icomlib.a(ssv6200_rx.o)
 .rodata.__func__.6484
                0x0200a2ea        0xc icomlib.a(ssv6200_rx.o)
 icomlib.a:ssv6200_tx.o(.text .text* .rodata .rodata*)
 .text          0x0200a2f6        0x0 icomlib.a(ssv6200_tx.o)
 icomlib.a:throughput.o(.text .text* .rodata .rodata*)
 icomlib.a:rate_control.o(.text .text* .rodata .rodata*)
 .text          0x0200a2f6        0x0 icomlib.a(rate_control.o)
 *fill*         0x0200a2f6        0x2 
 .text.init_ratecontrol
                0x0200a2f8       0xec icomlib.a(rate_control.o)
                0x0200a2f8                init_ratecontrol
 .text.datarate_down
                0x0200a3e4       0x70 icomlib.a(rate_control.o)
                0x0200a3e4                datarate_down
 .text.datarate_up
                0x0200a454       0x84 icomlib.a(rate_control.o)
                0x0200a454                datarate_up
 .rodata.ssv6xxx_rc_rate_set
                0x0200a4d8       0xd2 icomlib.a(rate_control.o)
                0x0200a4d8                ssv6xxx_rc_rate_set
 .rodata.str1.1
                0x0200a5aa       0x40 icomlib.a(rate_control.o)
                                 0x5f (size before relaxing)
 icomlib.a:dbg-printf.o(.text .text* .rodata .rodata*)
 icomlib.a:strformat.o(.text .text* .rodata .rodata*)
 .text          0x0200a5ea        0x0 icomlib.a(strformat.o)
 *fill*         0x0200a5ea        0x2 
 .text.fill_space
                0x0200a5ec       0x64 icomlib.a(strformat.o)
 .text.format_str_v
                0x0200a650      0xacc icomlib.a(strformat.o)
                0x0200a650                format_str_v
 .text.format_str
                0x0200b11c       0x28 icomlib.a(strformat.o)
                0x0200b11c                format_str
 .rodata.str1.1
                0x0200b144       0x35 icomlib.a(strformat.o)
                                 0x37 (size before relaxing)
 .rodata.buffer.3688
                0x0200b179       0x10 icomlib.a(strformat.o)
 .rodata.buffer.3697
                0x0200b189       0x10 icomlib.a(strformat.o)
 icomlib.a:dbg-puts.o(.text .text* .rodata .rodata*)
 icomlib.a:debug-uart.o(.text .text* .rodata .rodata*)
 .text          0x0200b199        0x0 icomlib.a(debug-uart.o)
 *fill*         0x0200b199        0x3 
 .text.dbg_send_bytes
                0x0200b19c       0x44 icomlib.a(debug-uart.o)
                0x0200b19c                dbg_send_bytes
 .text.dbg_putchar
                0x0200b1e0       0x68 icomlib.a(debug-uart.o)
                0x0200b1e0                dbg_putchar
 .text.dbg_blocking_putchar
                0x0200b248       0x5c icomlib.a(debug-uart.o)
                0x0200b248                dbg_blocking_putchar
 .rodata.str1.1
                0x0200b2a4        0x2 icomlib.a(debug-uart.o)
 icomlib.a:soft_ap.o(.text .text* .rodata .rodata*)
 .text          0x0200b2a6        0x0 icomlib.a(soft_ap.o)
 *fill*         0x0200b2a6        0x2 
 .text.softap_dump_log
                0x0200b2a8      0x16c icomlib.a(soft_ap.o)
                0x0200b2a8                softap_dump_log
 .text.softap_set_bssid
                0x0200b414        0xc icomlib.a(soft_ap.o)
                0x0200b414                softap_set_bssid
 .text.softap_reset_peer_mac
                0x0200b420       0x28 icomlib.a(soft_ap.o)
                0x0200b420                softap_reset_peer_mac
 .text.softap_set_passphras
                0x0200b448       0x2c icomlib.a(soft_ap.o)
                0x0200b448                softap_set_passphras
 .text.softap_reset_sta_info
                0x0200b474       0x74 icomlib.a(soft_ap.o)
                0x0200b474                softap_reset_sta_info
 .text.softap_reset_sta_state
                0x0200b4e8       0x20 icomlib.a(soft_ap.o)
                0x0200b4e8                softap_reset_sta_state
 .text.softap_reset_sta_all
                0x0200b508       0x54 icomlib.a(soft_ap.o)
                0x0200b508                softap_reset_sta_all
 .text.softap_incr_seq_no
                0x0200b55c       0x54 icomlib.a(soft_ap.o)
                0x0200b55c                softap_incr_seq_no
 .text.softap_incr_timestamp
                0x0200b5b0       0x24 icomlib.a(soft_ap.o)
                0x0200b5b0                softap_incr_timestamp
 .text.softap_incr_sta_idle_timer
                0x0200b5d4       0x30 icomlib.a(soft_ap.o)
                0x0200b5d4                softap_incr_sta_idle_timer
 .text.softap_get_sta_connected
                0x0200b604       0x28 icomlib.a(soft_ap.o)
                0x0200b604                softap_get_sta_connected
 .text.softap_get_sta_connected_number
                0x0200b62c       0x1c icomlib.a(soft_ap.o)
                0x0200b62c                softap_get_sta_connected_number
 .text.softap_incre_sta_connected_number
                0x0200b648       0xa0 icomlib.a(soft_ap.o)
                0x0200b648                softap_incre_sta_connected_number
 .text.softap_decre_sta_connected_number
                0x0200b6e8       0x94 icomlib.a(soft_ap.o)
                0x0200b6e8                softap_decre_sta_connected_number
 .text.softap_reset_sta_idle_timer
                0x0200b77c       0x28 icomlib.a(soft_ap.o)
                0x0200b77c                softap_reset_sta_idle_timer
 .text.softap_get_sta_index_by_mac
                0x0200b7a4       0x58 icomlib.a(soft_ap.o)
                0x0200b7a4                softap_get_sta_index_by_mac
 .text.softap_reset_sta_idle_timer_by_mac
                0x0200b7fc       0x30 icomlib.a(soft_ap.o)
                0x0200b7fc                softap_reset_sta_idle_timer_by_mac
 .text.softap_sta_timeouted
                0x0200b82c       0xb8 icomlib.a(soft_ap.o)
                0x0200b82c                softap_sta_timeouted
 .text.softap_reset_tx_nulldata_idle_timer
                0x0200b8e4       0x58 icomlib.a(soft_ap.o)
                0x0200b8e4                softap_reset_tx_nulldata_idle_timer
 .text.softap_chk_if_connected_sta
                0x0200b93c       0x54 icomlib.a(soft_ap.o)
                0x0200b93c                softap_chk_if_connected_sta
 .text.softap_push_sta_info
                0x0200b990       0x90 icomlib.a(soft_ap.o)
                0x0200b990                softap_push_sta_info
 .text.softap_sta_assoc_resp_acked
                0x0200ba20      0x154 icomlib.a(soft_ap.o)
                0x0200ba20                softap_sta_assoc_resp_acked
 .text.softap_get_allow_connection
                0x0200bb74       0x54 icomlib.a(soft_ap.o)
                0x0200bb74                softap_get_allow_connection
 .text.softap_set_state_dhcp_rack
                0x0200bbc8       0x14 icomlib.a(soft_ap.o)
                0x0200bbc8                softap_set_state_dhcp_rack
 .text.softap_set_ip_info
                0x0200bbdc       0x30 icomlib.a(soft_ap.o)
                0x0200bbdc                softap_set_ip_info
 .text.softap_tx_nulldata
                0x0200bc0c       0xd8 icomlib.a(soft_ap.o)
                0x0200bc0c                softap_tx_nulldata
 .text.process_thread_softap_tx_nulldata_process
                0x0200bce4      0x13c icomlib.a(soft_ap.o)
 .text.process_thread_softap_beacon_process
                0x0200be20      0x170 icomlib.a(soft_ap.o)
 .text.softap_disable_autobeacon
                0x0200bf90       0x14 icomlib.a(soft_ap.o)
                0x0200bf90                softap_disable_autobeacon
 .text.softap_set_channel
                0x0200bfa4       0x24 icomlib.a(soft_ap.o)
                0x0200bfa4                softap_set_channel
 .text.softap_rx_check_RSN
                0x0200bfc8       0xac icomlib.a(soft_ap.o)
                0x0200bfc8                softap_rx_check_RSN
 .text.softap_tx_deauth
                0x0200c074       0xe4 icomlib.a(soft_ap.o)
                0x0200c074                softap_tx_deauth
 .text.softap_tx_deauth_connected
                0x0200c158      0x134 icomlib.a(soft_ap.o)
                0x0200c158                softap_tx_deauth_connected
 .text.softap_tx_deauth_unknown_sta
                0x0200c28c       0xf8 icomlib.a(soft_ap.o)
                0x0200c28c                softap_tx_deauth_unknown_sta
 .text.softap_rx_reassoc_req
                0x0200c384       0x28 icomlib.a(soft_ap.o)
                0x0200c384                softap_rx_reassoc_req
 .text.softap_tx_disassoc
                0x0200c3ac       0xfc icomlib.a(soft_ap.o)
                0x0200c3ac                softap_tx_disassoc
 .text.softap_process_all_sta_timeouted
                0x0200c4a8       0x94 icomlib.a(soft_ap.o)
                0x0200c4a8                softap_process_all_sta_timeouted
 .text.process_thread_softap_mgm_process
                0x0200c53c      0x1b0 icomlib.a(soft_ap.o)
 .text.softap_dhcp_start
                0x0200c6ec       0x18 icomlib.a(soft_ap.o)
                0x0200c6ec                softap_dhcp_start
 .text.softap_start
                0x0200c704      0x16c icomlib.a(soft_ap.o)
                0x0200c704                softap_start
 .text.softap_exit
                0x0200c870       0x98 icomlib.a(soft_ap.o)
                0x0200c870                softap_exit
 .rodata        0x0200c908        0x6 icomlib.a(soft_ap.o)
 .rodata.__func__.8452
                0x0200c90e       0x13 icomlib.a(soft_ap.o)
 .rodata.__func__.8174
                0x0200c921       0x16 icomlib.a(soft_ap.o)
 .rodata.__func__.8314
                0x0200c937       0x13 icomlib.a(soft_ap.o)
 .rodata.__func__.8463
                0x0200c94a       0x19 icomlib.a(soft_ap.o)
 .rodata.__func__.8534
                0x0200c963       0x25 icomlib.a(soft_ap.o)
 .rodata.__func__.8330
                0x0200c988       0x11 icomlib.a(soft_ap.o)
 .rodata.__func__.8214
                0x0200c999       0x22 icomlib.a(soft_ap.o)
 .rodata.str1.1
                0x0200c9bb      0x389 icomlib.a(soft_ap.o)
                                0x3dd (size before relaxing)
 .rodata.__func__.8208
                0x0200cd44       0x22 icomlib.a(soft_ap.o)
 .rodata.__func__.8401
                0x0200cd66       0x19 icomlib.a(soft_ap.o)
 .rodata.__func__.8543
                0x0200cd7f        0xd icomlib.a(soft_ap.o)
 .rodata.__func__.8410
                0x0200cd8c       0x17 icomlib.a(soft_ap.o)
 .rodata.__func__.8442
                0x0200cda3       0x1d icomlib.a(soft_ap.o)
 .rodata.__func__.8420
                0x0200cdc0       0x11 icomlib.a(soft_ap.o)
 .rodata.__func__.8431
                0x0200cdd1       0x1b icomlib.a(soft_ap.o)
 .rodata.__func__.8248
                0x0200cdec       0x24 icomlib.a(soft_ap.o)
 icomlib.a:xmem.o(.text .text* .rodata .rodata*)
 .text          0x0200ce10        0x0 icomlib.a(xmem.o)
 .text.cabrio_flash_init
                0x0200ce10        0x4 icomlib.a(xmem.o)
                0x0200ce10                cabrio_flash_init
 .text.cabrio_flash_get_base_adddr
                0x0200ce14        0x4 icomlib.a(xmem.o)
                0x0200ce14                cabrio_flash_get_base_adddr
 .text.cabrio_flash_read
                0x0200ce18       0x2c icomlib.a(xmem.o)
                0x0200ce18                cabrio_flash_read
 .text.cabrio_flash_write_only
                0x0200ce44       0x40 icomlib.a(xmem.o)
                0x0200ce44                cabrio_flash_write_only
 .text.cabrio_flash_read_erase_write
                0x0200ce84       0x5c icomlib.a(xmem.o)
                0x0200ce84                cabrio_flash_read_erase_write
 .text.cabrio_flash_erase_marker_sector
                0x0200cee0       0x2c icomlib.a(xmem.o)
                0x0200cee0                cabrio_flash_erase_marker_sector
 .text.cabrio_flash_erase
                0x0200cf0c       0x8c icomlib.a(xmem.o)
                0x0200cf0c                cabrio_flash_erase
 icomlib.a:drv_flash.o(.text .text* .rodata .rodata*)
 .text          0x0200cf98        0x0 icomlib.a(drv_flash.o)
 .text.drv_flash_get_cache_addr
                0x0200cf98        0xc icomlib.a(drv_flash.o)
                0x0200cf98                drv_flash_get_cache_addr
 .text.drv_flash_get_base_addr
                0x0200cfa4       0x10 icomlib.a(drv_flash.o)
                0x0200cfa4                drv_flash_get_base_addr
 .text.drv_flash_write_cmd
                0x0200cfb4       0x14 icomlib.a(drv_flash.o)
                0x0200cfb4                drv_flash_write_cmd
 .text.drv_flash_init
                0x0200cfc8       0x98 icomlib.a(drv_flash.o)
                0x0200cfc8                drv_flash_init
 .text.drv_flash_wait_spi_busy
                0x0200d060       0x34 icomlib.a(drv_flash.o)
                0x0200d060                drv_flash_wait_spi_busy
 .text.drv_flash_read_spi_status_regsiter
                0x0200d094       0x64 icomlib.a(drv_flash.o)
                0x0200d094                drv_flash_read_spi_status_regsiter
 .text.drv_flash_wait_spi_status_regsiter
                0x0200d0f8       0x3c icomlib.a(drv_flash.o)
                0x0200d0f8                drv_flash_wait_spi_status_regsiter
 .text.drv_flash_write_enable
                0x0200d134       0x48 icomlib.a(drv_flash.o)
                0x0200d134                drv_flash_write_enable
 .text.drv_flash_sector_erase
                0x0200d17c       0x60 icomlib.a(drv_flash.o)
                0x0200d17c                drv_flash_sector_erase
 .text.drv_flash_page_program_for_erase
                0x0200d1dc       0x68 icomlib.a(drv_flash.o)
                0x0200d1dc                drv_flash_page_program_for_erase
 .text.drv_flash_page_program
                0x0200d244       0x68 icomlib.a(drv_flash.o)
                0x0200d244                drv_flash_page_program
 .text.drv_flash_read
                0x0200d2ac       0x84 icomlib.a(drv_flash.o)
                0x0200d2ac                drv_flash_read
 icomlib.a:flash_api.o(.text .text* .rodata .rodata*)
 .text          0x0200d330        0x0 icomlib.a(flash_api.o)
 .text.spi_flash_init
                0x0200d330       0x10 icomlib.a(flash_api.o)
                0x0200d330                spi_flash_init
 .text.spi_flash_read
                0x0200d340       0x54 icomlib.a(flash_api.o)
                0x0200d340                spi_flash_read
 .text.spi_flash_sector_erase
                0x0200d394       0x40 icomlib.a(flash_api.o)
                0x0200d394                spi_flash_sector_erase
 .text.spi_flash_write
                0x0200d3d4       0x6c icomlib.a(flash_api.o)
                0x0200d3d4                spi_flash_write
 .text.spi_flash_finalize
                0x0200d440       0x70 icomlib.a(flash_api.o)
                0x0200d440                spi_flash_finalize
 .text.spi_flash_write_directly
                0x0200d4b0       0x78 icomlib.a(flash_api.o)
                0x0200d4b0                spi_flash_write_directly
 .text.spi_flash_test
                0x0200d528       0xa0 icomlib.a(flash_api.o)
                0x0200d528                spi_flash_test
 .text.spi_flash_cutom_cmd
                0x0200d5c8        0x8 icomlib.a(flash_api.o)
                0x0200d5c8                spi_flash_cutom_cmd
 .rodata.__func__.5122
                0x0200d5d0       0x10 icomlib.a(flash_api.o)
 .rodata.str1.1
                0x0200d5e0      0x113 icomlib.a(flash_api.o)
 icomlib.a:hw_regs_api.o(.text .text* .rodata .rodata*)
 .text          0x0200d6f3        0x0 icomlib.a(hw_regs_api.o)
 *fill*         0x0200d6f3        0x1 
 .text.hw_reg_write
                0x0200d6f4        0xc icomlib.a(hw_regs_api.o)
                0x0200d6f4                hw_reg_write
 .text.hw_reg_read
                0x0200d700       0x10 icomlib.a(hw_regs_api.o)
                0x0200d700                hw_reg_read
 .text.hw_reg_set_bits
                0x0200d710       0x18 icomlib.a(hw_regs_api.o)
                0x0200d710                hw_reg_set_bits
 icomlib.a:powersave.o(.text .text* .rodata .rodata*)
 .text          0x0200d728        0x0 icomlib.a(powersave.o)
 .text.set_power_waketime
                0x0200d728       0x90 icomlib.a(powersave.o)
                0x0200d728                set_power_waketime
 .text.set_power_sleeptime
                0x0200d7b8       0x6c icomlib.a(powersave.o)
                0x0200d7b8                set_power_sleeptime
 .text.disable_power_waketime
                0x0200d824       0x14 icomlib.a(powersave.o)
                0x0200d824                disable_power_waketime
 .text.disable_power_sleeptime
                0x0200d838       0x14 icomlib.a(powersave.o)
                0x0200d838                disable_power_sleeptime
 .text.is_waketime_alive
                0x0200d84c       0x38 icomlib.a(powersave.o)
                0x0200d84c                is_waketime_alive
 .text.findTIM  0x0200d884      0x118 icomlib.a(powersave.o)
                0x0200d884                findTIM
 .text.Switch_Power_mode
                0x0200d99c       0x40 icomlib.a(powersave.o)
                0x0200d99c                Switch_Power_mode
 .text.timerintr_handler
                0x0200d9dc       0xdc icomlib.a(powersave.o)
                0x0200d9dc                timerintr_handler
 .text.powersave_start_run
                0x0200dab8       0x6c icomlib.a(powersave.o)
                0x0200dab8                powersave_start_run
 .text.powersave_stop_run
                0x0200db24       0x48 icomlib.a(powersave.o)
                0x0200db24                powersave_stop_run
 .text.process_thread_power_wake_process
                0x0200db6c       0xf0 icomlib.a(powersave.o)
 .rodata.str1.1
                0x0200dc5c       0x4c icomlib.a(powersave.o)
 contikilib.a:socket_driver.o(.text .text* .rodata .rodata*)
 .text          0x0200dca8        0x0 contikilib.a(socket_driver.o)
 .text.process_thread_udp_driver_process
                0x0200dca8       0xe4 contikilib.a(socket_driver.o)
 .text.getpeerIPv4addr
                0x0200dd8c       0x30 contikilib.a(socket_driver.o)
                0x0200dd8c                getpeerIPv4addr
 .text.set_tcp_timeout
                0x0200ddbc        0x4 contikilib.a(socket_driver.o)
                0x0200ddbc                set_tcp_timeout
 .text.tcpsend  0x0200ddc0       0x5c contikilib.a(socket_driver.o)
                0x0200ddc0                tcpsend
 .text.tcprecv  0x0200de1c       0xb4 contikilib.a(socket_driver.o)
                0x0200de1c                tcprecv
 .text.tcpevent_handle
                0x0200ded0      0x268 contikilib.a(socket_driver.o)
                0x0200ded0                tcpevent_handle
 .text.process_thread_tcp_driver_process
                0x0200e138       0x78 contikilib.a(socket_driver.o)
 .text.tcpconnect
                0x0200e1b0       0x64 contikilib.a(socket_driver.o)
                0x0200e1b0                tcpconnect
 .text.tcpclose
                0x0200e214       0x28 contikilib.a(socket_driver.o)
                0x0200e214                tcpclose
 .text.tcplisten
                0x0200e23c       0x20 contikilib.a(socket_driver.o)
                0x0200e23c                tcplisten
 .text.tcpunlisten
                0x0200e25c       0x10 contikilib.a(socket_driver.o)
                0x0200e25c                tcpunlisten
 .text.tcpattch
                0x0200e26c       0x20 contikilib.a(socket_driver.o)
                0x0200e26c                tcpattch
 .text.udpcreate
                0x0200e28c       0x48 contikilib.a(socket_driver.o)
                0x0200e28c                udpcreate
 .text.udpclose
                0x0200e2d4       0x20 contikilib.a(socket_driver.o)
                0x0200e2d4                udpclose
 .text.udpsendto
                0x0200e2f4       0x9c contikilib.a(socket_driver.o)
                0x0200e2f4                udpsendto
 .text.udprecvfrom
                0x0200e390       0xc8 contikilib.a(socket_driver.o)
                0x0200e390                udprecvfrom
 .rodata.str1.1
                0x0200e458       0x29 contikilib.a(socket_driver.o)
 icomlib.a:pstm.o(.text .text* .rodata .rodata*)
 icomlib.a:pstmmonreduce.o(.text .text* .rodata .rodata*)
 icomlib.a:pstmmulcomba.o(.text .text* .rodata .rodata*)
 icomlib.a:pstmsqrcomba.o(.text .text* .rodata .rodata*)
 icomlib.a:asn1.o(.text .text* .rodata .rodata*)
 icomlib.a:x905.o(.text .text* .rodata .rodata*)
 icomlib.a:sha512.o(.text .text* .rodata .rodata*)
 icomlib.a:sha384.o(.text .text* .rodata .rodata*)
 icomlib.a:sha256.o(.text .text* .rodata .rodata*)
 icomlib.a:ssv_lib.o(.text .text* .rodata .rodata*)
 .text          0x0200e481        0x0 icomlib.a(ssv_lib.o)
 *fill*         0x0200e481        0x3 
 .text._sbrk    0x0200e484       0x58 icomlib.a(ssv_lib.o)
                0x0200e484                _sbrk
 .text.strlen   0x0200e4dc       0x20 icomlib.a(ssv_lib.o)
                0x0200e4dc                strlen
 .text.memcmp   0x0200e4fc       0x38 icomlib.a(ssv_lib.o)
                0x0200e4fc                memcmp
 .text.memcpy   0x0200e534       0x48 icomlib.a(ssv_lib.o)
                0x0200e534                memcpy
 .text.memset   0x0200e57c       0x20 icomlib.a(ssv_lib.o)
                0x0200e57c                memset
 .text.strncpy  0x0200e59c       0x44 icomlib.a(ssv_lib.o)
                0x0200e59c                strncpy
 .text.strcmp   0x0200e5e0       0x30 icomlib.a(ssv_lib.o)
                0x0200e5e0                strcmp
 .text.strcat   0x0200e610       0x30 icomlib.a(ssv_lib.o)
                0x0200e610                strcat
 .text.strtok   0x0200e640       0xa0 icomlib.a(ssv_lib.o)
                0x0200e640                strtok
 .rodata.str1.1
                0x0200e6e0       0x46 icomlib.a(ssv_lib.o)
 *(.text.process_thread*)
                0x0200e728                . = ALIGN (0x4)
 *fill*         0x0200e726        0x2 
                0x02000000                _tbeg_dst = ORIGIN (ram)
                0x03036394                _sitxt3 = (LOADADDR (prog_in_flash) + SIZEOF (prog_in_flash))
                0x03036394                _tbeg_src = LOADADDR (prog_in_sram)
                0x0200e728                _tend_dst = (_tbeg_dst + SIZEOF (prog_in_sram))

.ARM            0x0200e728        0x8 load address 0x03044abc
 *(.ARM.exidx*)
 .ARM.exidx     0x0200e728        0x8 /usr/bin/../lib/gcc/arm-none-eabi/4.8.4/libgcc.a(_divdi3.o)
 .ARM.exidx     0x0200e730        0x0 /usr/bin/../lib/gcc/arm-none-eabi/4.8.4/libgcc.a(_udivdi3.o)
                                  0x8 (size before relaxing)
                0x0200e730                _tend_dst = .

.data           0x0200e730     0x1180 load address 0x03044ac8
                0x0200e730                _dbeg_dst = .
 *(EXCLUDE_FILE(icomlib.a:boot-hiflying.o) .data)
 .data          0x0200e730        0x0 /tmp/ccmDjWLP.o
 .data          0x0200e730        0x0 ssv6060-main.o
 .data          0x0200e730        0x0 icomlib.a(etimer.o)
 .data          0x0200e730        0x0 icomlib.a(printf.o)
 .data          0x0200e730        0x0 icomlib.a(process.o)
 .data          0x0200e730        0x0 icomlib.a(strformat.o)
 .data          0x0200e730        0x0 icomlib.a(timer.o)
 .data          0x0200e730        0x0 icomlib.a(atcmd_icomm.o)
 .data          0x0200e730        0x0 icomlib.a(clock.o)
 .data          0x0200e730        0x0 icomlib.a(contiki-main.o)
 .data          0x0200e730        0x0 icomlib.a(debug-uart.o)
 .data          0x0200e730        0x0 icomlib.a(gpio_api.o)
 .data          0x0200e730        0x0 icomlib.a(drv_timer.o)
 .data          0x0200e730        0x0 icomlib.a(drv_uart.o)
 .data          0x0200e730        0x0 icomlib.a(hw_init.o)
 .data          0x0200e730        0x0 icomlib.a(hw_regs_api.o)
 .data          0x0200e730        0x0 icomlib.a(ssv_lib.o)
 .data          0x0200e730        0x0 icomlib.a(ssv_lib_slow.o)
 .data          0x0200e730        0x0 icomlib.a(swpwm.o)
 .data          0x0200e730        0x0 icomlib.a(systemconf.o)
 .data          0x0200e730        0x0 icomlib.a(wdog_api.o)
 .data          0x0200e730        0x0 icomlib.a(xmem.o)
 .data          0x0200e730        0x0 icomlib.a(bsp.o)
 .data          0x0200e730        0x0 icomlib.a(crypthw.o)
 .data          0x0200e730        0x0 icomlib.a(dbg-atcmd-api.o)
 .data          0x0200e730        0x0 icomlib.a(drv_mac.o)
 .data          0x0200e730        0x0 icomlib.a(drv_phy.o)
 .data          0x0200e730        0x0 icomlib.a(drv_pktbuf.o)
 .data          0x0200e730        0x0 icomlib.a(drv_pktbuf_slow)
 .data          0x0200e730        0x0 icomlib.a(hash_alg.o)
 .data          0x0200e730        0x0 icomlib.a(hmac_md5.o)
 .data          0x0200e730        0x0 icomlib.a(hmac_sha1.o)
 .data          0x0200e730        0x0 icomlib.a(ieee80211_mgmt.)
 .data          0x0200e730        0x0 icomlib.a(ieee80211_rdc.o)
 .data          0x0200e730        0x0 icomlib.a(irq.o)
 .data          0x0200e730        0x0 icomlib.a(netstack.o)
 .data          0x0200e730        0x0 icomlib.a(powersave.o)
 .data          0x0200e730        0x0 icomlib.a(rate_control.o)
 .data          0x0200e730        0x0 icomlib.a(sha1.o)
 .data          0x0200e730        0x0 icomlib.a(soft_ap.o)
 .data          0x0200e730        0x0 icomlib.a(ssv6200_rx.o)
 .data          0x0200e730        0x0 icomlib.a(ssvradio.o)
 .data          0x0200e730        0x0 icomlib.a(wpa.o)
 .data          0x0200e730        0x0 icomlib.a(sys_status_api.)
 .data          0x0200e730        0x0 icomlib.a(AES_decrypt.o)
 .data          0x0200e730        0x0 icomlib.a(arc4.o)
 .data          0x0200e730        0x0 icomlib.a(md5.o)
 .data          0x0200e730        0x0 icomlib.a(wep.o)
 .data          0x0200e730        0x0 icomlib.a(autostart.o)
 .data          0x0200e730        0x0 icomlib.a(shell-ping.o)
 .data          0x0200e730        0x0 icomlib.a(random.o)
 .data          0x0200e730        0x0 icomlib.a(airkiss.o)
 .data          0x0200e730        0x0 icomlib.a(bsp_info.o)
 .data          0x0200e730        0x0 icomlib.a(cfs-coffee.o)
 .data          0x0200e730        0x0 icomlib.a(console.o)
 .data          0x0200e730        0x0 icomlib.a(drv_flash.o)
 .data          0x0200e730        0x0 icomlib.a(drv_gpio.o)
 .data          0x0200e730        0x0 icomlib.a(drv_pmu.o)
 .data          0x0200e730        0x0 icomlib.a(drv_wdog.o)
 .data          0x0200e730        0x0 icomlib.a(fence.o)
 .data          0x0200e730        0x0 icomlib.a(flash_api.o)
 .data          0x0200e730        0x0 icomlib.a(smartComm.o)
 .data          0x0200e730        0x0 icomlib.a(smartConf.o)
 .data          0x0200e730        0x0 icomlib.a(userSmart.o)
 .data          0x0200e730        0x0 icomlib.a(ieee80211_mac.o)
 .data          0x0200e730        0x0 icomlib.a(ieee80211_net.o)
 .data          0x0200e730        0x0 icomlib.a(ssv6200_tx.o)
 .data          0x0200e730        0x0 icomlib.a(drv_fence.o)
 .data          0x0200e730        0x0 icomlib.a(drv_mbox.o)
 .data          0x0200e730        0x0 icomlib.a(EAPOL.o)
 .data          0x0200e730        0x0 icomapps.a(atcmd.o)
 .data          0x0200e730        0x0 icomapps.a(socket_app.o)
 .data          0x0200e730        0x0 icomapps.a(soft_ap_init.o)
 .data          0x0200e730        0x0 icomapps.a(tcp_server_demo)
 .data          0x0200e730        0x0 icomapps.a(wifi_uart_demo.)
 .data          0x0200e730        0x0 icomapps.a(ota_api.o)
 .data          0x0200e730        0x0 icomlib.a(pwm_api.o)
 .data          0x0200e730        0x0 icomlib.a(serial_api.o)
 .data          0x0200e730        0x0 icomlib.a(drv_pwm.o)
 .data          0x0200e730        0x0 contikilib.a(dhcp_process.o)
 .data          0x0200e730        0x0 contikilib.a(dhcps.o)
 .data          0x0200e730        0x0 contikilib.a(resolv.o)
 .data          0x0200e730        0x0 contikilib.a(simple-udp.o)
 .data          0x0200e730        0x0 contikilib.a(socket_driver.o)
 .data          0x0200e730        0x0 contikilib.a(tcpip.o)
 .data          0x0200e730        0x0 contikilib.a(uip_arp.o)
 .data          0x0200e730        0x0 contikilib.a(uip.o)
 .data          0x0200e730        0x0 contikilib.a(uiplib.o)
 .data          0x0200e730        0x0 contikilib.a(uip-udp-packet.)
 .data          0x0200e730        0x0 contikilib.a(ntp_client.o)
 .data          0x0200e730        0x0 contikilib.a(dhcpc.o)
 .data          0x0200e730        0x0 accloud.a(zc_common.o)
 .data          0x0200e730        0x0 accloud.a(zc_configuratio)
 .data          0x0200e730        0x0 accloud.a(zc_message_queu)
 .data          0x0200e730        0x0 accloud.a(zc_protocol_con)
 .data          0x0200e730        0x0 accloud.a(zc_sec_engine.o)
 .data          0x0200e730        0x0 accloud.a(zc_timer.o)
 .data          0x0200e730        0x0 accloud.a(zc_hf_adpter.o)
 .data          0x0200e730        0x0 accloud.a(ac_api.o)
 .data          0x0200e730        0x0 accloud.a(ac_hal.o)
 .data          0x0200e730        0x0 accloud.a(aes_cbc.o)
 .data          0x0200e730        0x0 accloud.a(aes_core.o)
 .data          0x0200e730        0x0 accloud.a(crc.o)
 .data          0x0200e730        0x0 accloud.a(bignum.o)
 .data          0x0200e730        0x0 accloud.a(rsa.o)
 .data          0x0200e730        0x0 accloud.a(zc_client_manag)
 .data          0x0200e730        0x0 accloud.a(zc_cloud_event.)
 .data          0x0200e730        0x0 accloud.a(zc_moudle_manag)
 .data          0x0200e730        0x0 ./thirdPartyLib/libairkiss.a(airkiss.o)
 .data          0x0200e730        0x0 /usr/bin/../lib/gcc/arm-none-eabi/4.8.4/libgcc.a(_udivsi3.o)
 .data          0x0200e730        0x0 /usr/bin/../lib/gcc/arm-none-eabi/4.8.4/libgcc.a(_divsi3.o)
 .data          0x0200e730        0x0 /usr/bin/../lib/gcc/arm-none-eabi/4.8.4/libgcc.a(_dvmd_tls.o)
 .data          0x0200e730        0x0 /usr/bin/../lib/gcc/arm-none-eabi/4.8.4/libgcc.a(_aeabi_uldivmod.o)
 .data          0x0200e730        0x0 /usr/bin/../lib/gcc/arm-none-eabi/4.8.4/libgcc.a(bpabi.o)
 .data          0x0200e730        0x0 /usr/bin/../lib/gcc/arm-none-eabi/4.8.4/libgcc.a(_divdi3.o)
 .data          0x0200e730        0x0 /usr/bin/../lib/gcc/arm-none-eabi/4.8.4/libgcc.a(_udivdi3.o)
 .data          0x0200e730        0x0 /usr/bin/../lib/gcc/arm-none-eabi/4.8.4/libgcc.a(_clzsi2.o)
 .data          0x0200e730        0x0 /usr/bin/../lib/gcc/arm-none-eabi/4.8.4/../../../../arm-none-eabi/lib/libg_s.a(lib_a-atoi.o)
 .data          0x0200e730        0x0 /usr/bin/../lib/gcc/arm-none-eabi/4.8.4/../../../../arm-none-eabi/lib/libg_s.a(lib_a-errno.o)
 .data          0x0200e730        0x0 /usr/bin/../lib/gcc/arm-none-eabi/4.8.4/../../../../arm-none-eabi/lib/libg_s.a(lib_a-impure.o)
 .data          0x0200e730        0x0 /usr/bin/../lib/gcc/arm-none-eabi/4.8.4/../../../../arm-none-eabi/lib/libg_s.a(lib_a-malloc.o)
 .data          0x0200e730        0x0 /usr/bin/../lib/gcc/arm-none-eabi/4.8.4/../../../../arm-none-eabi/lib/libg_s.a(lib_a-memmove.o)
 .data          0x0200e730        0x0 /usr/bin/../lib/gcc/arm-none-eabi/4.8.4/../../../../arm-none-eabi/lib/libg_s.a(lib_a-nano-freer.o)
 .data          0x0200e730        0x0 /usr/bin/../lib/gcc/arm-none-eabi/4.8.4/../../../../arm-none-eabi/lib/libg_s.a(lib_a-nano-mallocr.o)
 .data          0x0200e730        0x0 /usr/bin/../lib/gcc/arm-none-eabi/4.8.4/../../../../arm-none-eabi/lib/libg_s.a(lib_a-rand.o)
 .data          0x0200e730        0x0 /usr/bin/../lib/gcc/arm-none-eabi/4.8.4/../../../../arm-none-eabi/lib/libg_s.a(lib_a-sbrkr.o)
 .data          0x0200e730        0x0 /usr/bin/../lib/gcc/arm-none-eabi/4.8.4/../../../../arm-none-eabi/lib/libg_s.a(lib_a-strcasecmp.o)
 .data          0x0200e730        0x0 /usr/bin/../lib/gcc/arm-none-eabi/4.8.4/../../../../arm-none-eabi/lib/libg_s.a(lib_a-strcpy.o)
 .data          0x0200e730        0x0 /usr/bin/../lib/gcc/arm-none-eabi/4.8.4/../../../../arm-none-eabi/lib/libg_s.a(lib_a-strncmp.o)
 .data          0x0200e730        0x0 /usr/bin/../lib/gcc/arm-none-eabi/4.8.4/../../../../arm-none-eabi/lib/libg_s.a(lib_a-strtol.o)
 .data          0x0200e730        0x0 /usr/bin/../lib/gcc/arm-none-eabi/4.8.4/../../../../arm-none-eabi/lib/libg_s.a(lib_a-strtoul.o)
 .data          0x0200e730        0x0 /usr/bin/../lib/gcc/arm-none-eabi/4.8.4/../../../../arm-none-eabi/lib/libg_s.a(lib_a-vsnprintf.o)
 .data          0x0200e730        0x0 /usr/bin/../lib/gcc/arm-none-eabi/4.8.4/../../../../arm-none-eabi/lib/libg_s.a(lib_a-ctype_.o)
 .data          0x0200e730        0x0 /usr/bin/../lib/gcc/arm-none-eabi/4.8.4/../../../../arm-none-eabi/lib/libg_s.a(lib_a-reent.o)
 .data          0x0200e730        0x0 /usr/bin/../lib/gcc/arm-none-eabi/4.8.4/../../../../arm-none-eabi/lib/libg_s.a(lib_a-svfprintf.o)
 .data          0x0200e730        0x0 /usr/bin/../lib/gcc/arm-none-eabi/4.8.4/../../../../arm-none-eabi/lib/libg_s.a(lib_a-vfprintf_i.o)
 .data          0x0200e730        0x0 /usr/bin/../lib/gcc/arm-none-eabi/4.8.4/../../../../arm-none-eabi/lib/libg_s.a(lib_a-memchr-stub.o)
 .data          0x0200e730        0x0 /usr/bin/../lib/gcc/arm-none-eabi/4.8.4/../../../../arm-none-eabi/lib/libg_s.a(lib_a-nano-reallocr.o)
 .data          0x0200e730        0x0 /usr/bin/../lib/gcc/arm-none-eabi/4.8.4/../../../../arm-none-eabi/lib/libg_s.a(lib_a-nano-msizer.o)
 *(EXCLUDE_FILE(icomlib.a:boot-hiflying.o) .data*)
 .data.ac_tcp_connect_process
                0x0200e730       0x10 ssv6060-main.o
                0x0200e730                ac_tcp_connect_process
 .data.main_process
                0x0200e740       0x10 ssv6060-main.o
                0x0200e740                main_process
 .data.gTcpSocket
                0x0200e750        0x4 ssv6060-main.o
                0x0200e750                gTcpSocket
 .data.ac_nslookup_process
                0x0200e754       0x10 ssv6060-main.o
                0x0200e754                ac_nslookup_process
 .data.atcmd_info_tbl
                0x0200e764       0x30 ssv6060-main.o
                0x0200e764                atcmd_info_tbl
 .data.etimer_process
                0x0200e794       0x10 icomlib.a(etimer.o)
                0x0200e794                etimer_process
 .data.ctxt     0x0200e7a4        0x8 icomlib.a(printf.o)
 .data.g_aLogEnable
                0x0200e7ac       0x20 icomlib.a(printf.o)
                0x0200e7ac                g_aLogEnable
 .data.Cabrio_ate_process
                0x0200e7cc       0x10 icomlib.a(atcmd_icomm.o)
                0x0200e7cc                Cabrio_ate_process
 *fill*         0x0200e7dc        0x4 
 .data.current_ntp_clock
                0x0200e7e0        0x8 icomlib.a(clock.o)
 .data.current_ntp_seconds
                0x0200e7e8        0x4 icomlib.a(clock.o)
 .data.phy_ll_length_tbl
                0x0200e7ec       0x20 icomlib.a(hw_init.o)
                0x0200e7ec                phy_ll_length_tbl
 .data.phy_info_tbl
                0x0200e80c       0x9c icomlib.a(hw_init.o)
                0x0200e80c                phy_info_tbl
 .data.phy_index_tbl
                0x0200e8a8       0x9c icomlib.a(hw_init.o)
                0x0200e8a8                phy_index_tbl
 .data.heap_end.4378
                0x0200e944        0x4 icomlib.a(ssv_lib.o)
 .data.watchdog_process
                0x0200e948       0x10 icomlib.a(wdog_api.o)
                0x0200e948                watchdog_process
 .data.defaultN
                0x0200e958        0x1 icomlib.a(dbg-atcmd-api.o)
 *fill*         0x0200e959        0x3 
 .data.nTotalCount
                0x0200e95c        0x4 icomlib.a(dbg-atcmd-api.o)
 .data.defaultP
                0x0200e960        0x1 icomlib.a(dbg-atcmd-api.o)
 .data.gRun     0x0200e961        0x1 icomlib.a(dbg-atcmd-api.o)
 .data.gCompensatorRun
                0x0200e962        0x1 icomlib.a(dbg-atcmd-api.o)
 .data.test_data
                0x0200e963       0x25 icomlib.a(dbg-atcmd-api.o)
                0x0200e963                test_data
 .data.curr_temperature_state
                0x0200e988        0x1 icomlib.a(dbg-atcmd-api.o)
 *fill*         0x0200e989        0x3 
 .data.rf_test_config
                0x0200e98c       0x28 icomlib.a(dbg-atcmd-api.o)
                0x0200e98c                rf_test_config
 .data.rf_start_process
                0x0200e9b4       0x10 icomlib.a(dbg-atcmd-api.o)
                0x0200e9b4                rf_start_process
 .data.temperature_compensator_process
                0x0200e9c4       0x10 icomlib.a(dbg-atcmd-api.o)
                0x0200e9c4                temperature_compensator_process
 .data.gCount   0x0200e9d4        0x4 icomlib.a(dbg-atcmd-api.o)
 .data.gTime    0x0200e9d8        0x1 icomlib.a(dbg-atcmd-api.o)
 *fill*         0x0200e9d9        0x3 
 .data.nDelayMSec
                0x0200e9dc        0x4 icomlib.a(dbg-atcmd-api.o)
 .data.start_tx_process
                0x0200e9e0       0x10 icomlib.a(dbg-atcmd-api.o)
                0x0200e9e0                start_tx_process
 .data.rtbl_cali_rxdc
                0x0200e9f0      0x104 icomlib.a(drv_phy.o)
                0x0200e9f0                rtbl_cali_rxdc
 .data.rtbl_cali_txlo
                0x0200eaf4       0x14 icomlib.a(drv_phy.o)
                0x0200eaf4                rtbl_cali_txlo
 .data.phy_cali_config_papd
                0x0200eb08       0x14 icomlib.a(drv_phy.o)
                0x0200eb08                phy_cali_config_papd
 .data.rg_rxdc_set_i
                0x0200eb1c       0x40 icomlib.a(drv_phy.o)
                0x0200eb1c                rg_rxdc_set_i
 .data.g_rf_config
                0x0200eb5c        0xc icomlib.a(drv_phy.o)
                0x0200eb5c                g_rf_config
 .data.rg_rxdc_set_q
                0x0200eb68       0x40 icomlib.a(drv_phy.o)
                0x0200eb68                rg_rxdc_set_q
 .data.rtbl_cali_rxrc
                0x0200eba8        0xc icomlib.a(drv_phy.o)
                0x0200eba8                rtbl_cali_rxrc
 .data.rtbl_cali_papd
                0x0200ebb4      0x1d4 icomlib.a(drv_phy.o)
                0x0200ebb4                rtbl_cali_papd
 .data.cali_info_tbl
                0x0200ed88       0xc8 icomlib.a(drv_phy.o)
                0x0200ed88                cali_info_tbl
 .data.rtbl_cali_tssi
                0x0200ee50        0xc icomlib.a(drv_phy.o)
                0x0200ee50                rtbl_cali_tssi
 .data.rtbl_cali_rxiq
                0x0200ee5c       0x14 icomlib.a(drv_phy.o)
                0x0200ee5c                rtbl_cali_rxiq
 .data.phyreg_tbl_recovery
                0x0200ee70       0x10 icomlib.a(drv_phy.o)
 .data.rtbl_cali_txiq
                0x0200ee80       0x14 icomlib.a(drv_phy.o)
                0x0200ee80                rtbl_cali_txiq
 .data.scan_channel_process
                0x0200ee94       0x10 icomlib.a(ieee80211_mgmt.)
                0x0200ee94                scan_channel_process
 .data.bss_reconnect_process
                0x0200eea4       0x10 icomlib.a(ieee80211_mgmt.)
                0x0200eea4                bss_reconnect_process
 .data.beacon_process
                0x0200eeb4       0x10 icomlib.a(ieee80211_mgmt.)
                0x0200eeb4                beacon_process
 .data.power_wake_process
                0x0200eec4       0x10 icomlib.a(powersave.o)
                0x0200eec4                power_wake_process
 .data.nav_table
                0x0200eed4      0x138 icomlib.a(rate_control.o)
                0x0200eed4                nav_table
 .data.softap_mgm_process
                0x0200f00c       0x10 icomlib.a(soft_ap.o)
                0x0200f00c                softap_mgm_process
 .data.softap_tx_nulldata_process
                0x0200f01c       0x10 icomlib.a(soft_ap.o)
                0x0200f01c                softap_tx_nulldata_process
 .data.softap_beacon_process
                0x0200f02c       0x10 icomlib.a(soft_ap.o)
                0x0200f02c                softap_beacon_process
 .data.next_txqueue
                0x0200f03c        0x4 icomlib.a(ssvradio.o)
                0x0200f03c                next_txqueue
 .data.ssv6200_radio_receive_process
                0x0200f040       0x10 icomlib.a(ssvradio.o)
                0x0200f040                ssv6200_radio_receive_process
 .data.PADDING  0x0200f050       0x40 icomlib.a(md5.o)
 .data.shell_ping_process
                0x0200f090       0x10 icomlib.a(shell-ping.o)
                0x0200f090                shell_ping_process
 .data.airkiss_conf_process
                0x0200f0a0       0x10 icomlib.a(airkiss.o)
                0x0200f0a0                airkiss_conf_process
 .data.cabrio_fs_marker
                0x0200f0b0       0x20 icomlib.a(cfs-coffee.o)
                0x0200f0b0                cabrio_fs_marker
 .data.uart_fw_size
                0x0200f0d0        0x4 icomlib.a(console.o)
                0x0200f0d0                uart_fw_size
 .data.GPIOINTRSEL
                0x0200f0d4       0x28 icomlib.a(drv_gpio.o)
                0x0200f0d4                GPIOINTRSEL
 .data.GPIOREGADDR
                0x0200f0fc       0x28 icomlib.a(drv_gpio.o)
                0x0200f0fc                GPIOREGADDR
 .data.smart_conf_ack
                0x0200f124       0x10 icomlib.a(smartComm.o)
                0x0200f124                smart_conf_ack
 .data.magicNum
                0x0200f134        0xb icomlib.a(smartConf.o)
                0x0200f134                magicNum
 .data.rc4Key   0x0200f13f        0x4 icomlib.a(smartConf.o)
                0x0200f13f                rc4Key
 .data.poly     0x0200f143        0x1 icomlib.a(smartConf.o)
                0x0200f143                poly
 .data.smart_conf_process
                0x0200f144       0x10 icomlib.a(smartConf.o)
                0x0200f144                smart_conf_process
 .data.gudpsock
                0x0200f154        0x4 icomapps.a(atcmd.o)
                0x0200f154                gudpsock
 .data.poll_tx_process
                0x0200f158       0x10 icomapps.a(atcmd.o)
                0x0200f158                poll_tx_process
 .data.gserversock
                0x0200f168        0x4 icomapps.a(atcmd.o)
                0x0200f168                gserversock
 .data.tcp_connect_process
                0x0200f16c       0x10 icomapps.a(atcmd.o)
                0x0200f16c                tcp_connect_process
 .data.nslookup_process
                0x0200f17c       0x10 icomapps.a(atcmd.o)
                0x0200f17c                nslookup_process
 .data.gclientsock
                0x0200f18c        0x4 icomapps.a(atcmd.o)
                0x0200f18c                gclientsock
 .data.http_request_process
                0x0200f190       0x10 icomapps.a(atcmd.o)
                0x0200f190                http_request_process
 .data.discover_process
                0x0200f1a0       0x10 icomapps.a(socket_app.o)
                0x0200f1a0                discover_process
 .data.udp_server_discoverProcess
                0x0200f1b0       0x10 icomapps.a(socket_app.o)
                0x0200f1b0                udp_server_discoverProcess
 .data.tcp_client_smartProcess
                0x0200f1c0       0x10 icomapps.a(socket_app.o)
                0x0200f1c0                tcp_client_smartProcess
 .data.tcp_smartlink_process
                0x0200f1d0       0x10 icomapps.a(socket_app.o)
                0x0200f1d0                tcp_smartlink_process
 .data.tcp_server_demoProcess
                0x0200f1e0       0x10 icomapps.a(tcp_server_demo)
                0x0200f1e0                tcp_server_demoProcess
 .data.led_blink_process
                0x0200f1f0       0x10 icomapps.a(tcp_server_demo)
                0x0200f1f0                led_blink_process
 .data.tcpServerDemo_process
                0x0200f200       0x10 icomapps.a(tcp_server_demo)
                0x0200f200                tcpServerDemo_process
 .data.wifiUartDemo_process
                0x0200f210       0x10 icomapps.a(wifi_uart_demo.)
                0x0200f210                wifiUartDemo_process
 .data.tcp_server_wifiUartProcess
                0x0200f220       0x10 icomapps.a(wifi_uart_demo.)
                0x0200f220                tcp_server_wifiUartProcess
 .data.tcp_client_otaProcess
                0x0200f230       0x10 icomapps.a(ota_api.o)
                0x0200f230                tcp_client_otaProcess
 .data.auto_reboot_process
                0x0200f240       0x10 icomapps.a(ota_api.o)
                0x0200f240                auto_reboot_process
 .data.ota_updateProcess
                0x0200f250       0x10 icomapps.a(ota_api.o)
                0x0200f250                ota_updateProcess
 .data.dhcp_process
                0x0200f260       0x10 contikilib.a(dhcp_process.o)
                0x0200f260                dhcp_process
 .data.dhcp_server_process
                0x0200f270       0x10 contikilib.a(dhcps.o)
                0x0200f270                dhcp_server_process
 .data.resolv_process
                0x0200f280       0x10 contikilib.a(resolv.o)
                0x0200f280                resolv_process
 .data.resolv_default_dns_server
                0x0200f290        0x4 contikilib.a(resolv.o)
 .data.simple_udp_process
                0x0200f294       0x10 contikilib.a(simple-udp.o)
                0x0200f294                simple_udp_process
 .data.tcp_driver_process
                0x0200f2a4       0x10 contikilib.a(socket_driver.o)
                0x0200f2a4                tcp_driver_process
 .data.udp_driver_process
                0x0200f2b4       0x10 contikilib.a(socket_driver.o)
                0x0200f2b4                udp_driver_process
 .data.TCP_arpcheck_process
                0x0200f2c4       0x10 contikilib.a(tcpip.o)
                0x0200f2c4                TCP_arpcheck_process
 .data.tcpip_process
                0x0200f2d4       0x10 contikilib.a(tcpip.o)
                0x0200f2d4                tcpip_process
 .data.ARPBUF   0x0200f2e4        0x4 contikilib.a(uip_arp.o)
                0x0200f2e4                ARPBUF
 .data.IPARPBUF
                0x0200f2e8        0x4 contikilib.a(uip_arp.o)
                0x0200f2e8                IPARPBUF
 .data.arptable_polling_process
                0x0200f2ec       0x10 contikilib.a(uip_arp.o)
                0x0200f2ec                arptable_polling_process
 .data.get_gatewaymac_process
                0x0200f2fc       0x10 contikilib.a(uip_arp.o)
                0x0200f2fc                get_gatewaymac_process
 .data.UIP_TCP_BUF
                0x0200f30c        0x4 contikilib.a(uip.o)
                0x0200f30c                UIP_TCP_BUF
 .data.UDPBUF   0x0200f310        0x4 contikilib.a(uip.o)
                0x0200f310                UDPBUF
 .data.ICMPBUF  0x0200f314        0x4 contikilib.a(uip.o)
                0x0200f314                ICMPBUF
 .data.BUF      0x0200f318        0x4 contikilib.a(uip.o)
                0x0200f318                BUF
 .data.UIP_IP_BUF
                0x0200f31c        0x4 contikilib.a(uip.o)
                0x0200f31c                UIP_IP_BUF
 .data.ntp_connectPprocess
                0x0200f320       0x10 contikilib.a(ntp_client.o)
                0x0200f320                ntp_connectPprocess
 .data.ntp_client_Process
                0x0200f330       0x10 contikilib.a(ntp_client.o)
                0x0200f330                ntp_client_Process
 .data.g_u8DefaultTokenKey
                0x0200f340       0x10 accloud.a(zc_configuratio)
                0x0200f340                g_u8DefaultTokenKey
 .data.g_u8DefaultCloudKey
                0x0200f350       0x24 accloud.a(zc_configuratio)
                0x0200f350                g_u8DefaultCloudKey
 .data.oldImg2Addr
                0x0200f374        0x4 accloud.a(zc_hf_adpter.o)
                0x0200f374                oldImg2Addr
 .data.g_u32BcSleepCount
                0x0200f378        0x4 accloud.a(zc_hf_adpter.o)
                0x0200f378                g_u32BcSleepCount
 .data.newImg2Addr
                0x0200f37c        0x4 accloud.a(zc_hf_adpter.o)
                0x0200f37c                newImg2Addr
 .data.g_u8DeviceId
                0x0200f380       0x10 accloud.a(ac_hal.o)
                0x0200f380                g_u8DeviceId
 .data.g_u64Domain
                0x0200f390        0x8 accloud.a(ac_hal.o)
                0x0200f390                g_u64Domain
 .data.g_u8ModuleKey
                0x0200f398       0x70 accloud.a(ac_hal.o)
                0x0200f398                g_u8ModuleKey
 .data.crc_ta_4
                0x0200f408       0x40 accloud.a(crc.o)
                0x0200f408                crc_ta_4
 .data.crc_ta_8
                0x0200f448      0x400 accloud.a(crc.o)
                0x0200f448                crc_ta_8
 .data.impure_data
                0x0200f848       0x60 /usr/bin/../lib/gcc/arm-none-eabi/4.8.4/../../../../arm-none-eabi/lib/libg_s.a(lib_a-impure.o)
 .data._impure_ptr
                0x0200f8a8        0x4 /usr/bin/../lib/gcc/arm-none-eabi/4.8.4/../../../../arm-none-eabi/lib/libg_s.a(lib_a-impure.o)
                0x0200f8a8                _impure_ptr
 .data.__ctype_ptr__
                0x0200f8ac        0x4 /usr/bin/../lib/gcc/arm-none-eabi/4.8.4/../../../../arm-none-eabi/lib/libg_s.a(lib_a-ctype_.o)
                0x0200f8ac                __ctype_ptr__
                0x0200f8b0                _dend_dst = .
                0x03044ac8                _dbeg_src = LOADADDR (.data)

.igot.plt       0x0200f8b0        0x0 load address 0x03045c48
 .igot.plt      0x00000000        0x0 /tmp/ccmDjWLP.o

.bss            0x0200f8b0     0xb4d0 load address 0x03045c48
                0x0200f8b0                . = ALIGN (0x10)
                0x0200f8b0                __bss_beg__ = .
 *(EXCLUDE_FILE(icomlib.a:boot-hiflying.o) .bss)
 .bss           0x0200f8b0        0x0 /tmp/ccmDjWLP.o
 .bss           0x0200f8b0        0x0 ssv6060-main.o
 .bss           0x0200f8b0        0x0 icomlib.a(etimer.o)
 .bss           0x0200f8b0        0x0 icomlib.a(printf.o)
 .bss           0x0200f8b0        0x0 icomlib.a(process.o)
 .bss           0x0200f8b0        0x0 icomlib.a(strformat.o)
 .bss           0x0200f8b0        0x0 icomlib.a(timer.o)
 .bss           0x0200f8b0        0x0 icomlib.a(atcmd_icomm.o)
 .bss           0x0200f8b0        0x0 icomlib.a(clock.o)
 .bss           0x0200f8b0        0x0 icomlib.a(contiki-main.o)
 .bss           0x0200f8b0        0x0 icomlib.a(debug-uart.o)
 .bss           0x0200f8b0        0x0 icomlib.a(gpio_api.o)
 .bss           0x0200f8b0        0x0 icomlib.a(drv_timer.o)
 .bss           0x0200f8b0        0x0 icomlib.a(drv_uart.o)
 .bss           0x0200f8b0        0x0 icomlib.a(hw_init.o)
 .bss           0x0200f8b0        0x0 icomlib.a(hw_regs_api.o)
 .bss           0x0200f8b0        0x0 icomlib.a(ssv_lib.o)
 .bss           0x0200f8b0        0x0 icomlib.a(ssv_lib_slow.o)
 .bss           0x0200f8b0        0x0 icomlib.a(swpwm.o)
 .bss           0x0200f8b0        0x0 icomlib.a(systemconf.o)
 .bss           0x0200f8b0        0x0 icomlib.a(wdog_api.o)
 .bss           0x0200f8b0        0x0 icomlib.a(xmem.o)
 .bss           0x0200f8b0        0x0 icomlib.a(bsp.o)
 .bss           0x0200f8b0        0x0 icomlib.a(crypthw.o)
 .bss           0x0200f8b0        0x0 icomlib.a(dbg-atcmd-api.o)
 .bss           0x0200f8b0        0x0 icomlib.a(drv_mac.o)
 .bss           0x0200f8b0        0x0 icomlib.a(drv_phy.o)
 .bss           0x0200f8b0        0x0 icomlib.a(drv_pktbuf.o)
 .bss           0x0200f8b0        0x0 icomlib.a(drv_pktbuf_slow)
 .bss           0x0200f8b0        0x0 icomlib.a(hash_alg.o)
 .bss           0x0200f8b0        0x0 icomlib.a(hmac_md5.o)
 .bss           0x0200f8b0        0x0 icomlib.a(hmac_sha1.o)
 .bss           0x0200f8b0        0x0 icomlib.a(ieee80211_mgmt.)
 .bss           0x0200f8b0        0x0 icomlib.a(ieee80211_rdc.o)
 .bss           0x0200f8b0        0x0 icomlib.a(irq.o)
 .bss           0x0200f8b0        0x0 icomlib.a(netstack.o)
 .bss           0x0200f8b0        0x0 icomlib.a(powersave.o)
 .bss           0x0200f8b0        0x0 icomlib.a(rate_control.o)
 .bss           0x0200f8b0        0x0 icomlib.a(sha1.o)
 .bss           0x0200f8b0        0x0 icomlib.a(soft_ap.o)
 .bss           0x0200f8b0        0x0 icomlib.a(ssv6200_rx.o)
 .bss           0x0200f8b0        0x0 icomlib.a(ssvradio.o)
 .bss           0x0200f8b0        0x0 icomlib.a(wpa.o)
 .bss           0x0200f8b0        0x0 icomlib.a(sys_status_api.)
 .bss           0x0200f8b0        0x0 icomlib.a(AES_decrypt.o)
 .bss           0x0200f8b0        0x0 icomlib.a(arc4.o)
 .bss           0x0200f8b0        0x0 icomlib.a(md5.o)
 .bss           0x0200f8b0        0x0 icomlib.a(wep.o)
 .bss           0x0200f8b0        0x0 icomlib.a(autostart.o)
 .bss           0x0200f8b0        0x0 icomlib.a(shell-ping.o)
 .bss           0x0200f8b0        0x0 icomlib.a(random.o)
 .bss           0x0200f8b0        0x0 icomlib.a(airkiss.o)
 .bss           0x0200f8b0        0x0 icomlib.a(bsp_info.o)
 .bss           0x0200f8b0        0x0 icomlib.a(cfs-coffee.o)
 .bss           0x0200f8b0        0x0 icomlib.a(console.o)
 .bss           0x0200f8b0        0x0 icomlib.a(drv_flash.o)
 .bss           0x0200f8b0        0x0 icomlib.a(drv_gpio.o)
 .bss           0x0200f8b0        0x0 icomlib.a(drv_pmu.o)
 .bss           0x0200f8b0        0x0 icomlib.a(drv_wdog.o)
 .bss           0x0200f8b0        0x0 icomlib.a(fence.o)
 .bss           0x0200f8b0        0x0 icomlib.a(flash_api.o)
 .bss           0x0200f8b0        0x0 icomlib.a(smartComm.o)
 .bss           0x0200f8b0        0x0 icomlib.a(smartConf.o)
 .bss           0x0200f8b0        0x0 icomlib.a(userSmart.o)
 .bss           0x0200f8b0        0x0 icomlib.a(ieee80211_mac.o)
 .bss           0x0200f8b0        0x0 icomlib.a(ieee80211_net.o)
 .bss           0x0200f8b0        0x0 icomlib.a(ssv6200_tx.o)
 .bss           0x0200f8b0        0x0 icomlib.a(drv_fence.o)
 .bss           0x0200f8b0        0x0 icomlib.a(drv_mbox.o)
 .bss           0x0200f8b0        0x0 icomlib.a(EAPOL.o)
 .bss           0x0200f8b0        0x0 icomapps.a(atcmd.o)
 .bss           0x0200f8b0        0x0 icomapps.a(socket_app.o)
 .bss           0x0200f8b0        0x0 icomapps.a(soft_ap_init.o)
 .bss           0x0200f8b0        0x0 icomapps.a(tcp_server_demo)
 .bss           0x0200f8b0        0x0 icomapps.a(wifi_uart_demo.)
 .bss           0x0200f8b0        0x0 icomapps.a(ota_api.o)
 .bss           0x0200f8b0        0x0 icomlib.a(pwm_api.o)
 .bss           0x0200f8b0        0x0 icomlib.a(serial_api.o)
 .bss           0x0200f8b0        0x0 icomlib.a(drv_pwm.o)
 .bss           0x0200f8b0        0x0 contikilib.a(dhcp_process.o)
 .bss           0x0200f8b0        0x0 contikilib.a(dhcps.o)
 .bss           0x0200f8b0        0x0 contikilib.a(resolv.o)
 .bss           0x0200f8b0        0x0 contikilib.a(simple-udp.o)
 .bss           0x0200f8b0        0x0 contikilib.a(socket_driver.o)
 .bss           0x0200f8b0        0x0 contikilib.a(tcpip.o)
 .bss           0x0200f8b0        0x0 contikilib.a(uip_arp.o)
 .bss           0x0200f8b0        0x0 contikilib.a(uip.o)
 .bss           0x0200f8b0        0x0 contikilib.a(uiplib.o)
 .bss           0x0200f8b0        0x0 contikilib.a(uip-udp-packet.)
 .bss           0x0200f8b0        0x0 contikilib.a(ntp_client.o)
 .bss           0x0200f8b0        0x0 contikilib.a(dhcpc.o)
 .bss           0x0200f8b0        0x0 accloud.a(zc_common.o)
 .bss           0x0200f8b0        0x0 accloud.a(zc_configuratio)
 .bss           0x0200f8b0        0x0 accloud.a(zc_message_queu)
 .bss           0x0200f8b0        0x0 accloud.a(zc_protocol_con)
 .bss           0x0200f8b0        0x0 accloud.a(zc_sec_engine.o)
 .bss           0x0200f8b0        0x0 accloud.a(zc_timer.o)
 .bss           0x0200f8b0        0x0 accloud.a(zc_hf_adpter.o)
 .bss           0x0200f8b0        0x0 accloud.a(ac_api.o)
 .bss           0x0200f8b0        0x0 accloud.a(ac_hal.o)
 .bss           0x0200f8b0        0x0 accloud.a(aes_cbc.o)
 .bss           0x0200f8b0        0x0 accloud.a(aes_core.o)
 .bss           0x0200f8b0        0x0 accloud.a(crc.o)
 .bss           0x0200f8b0        0x0 accloud.a(bignum.o)
 .bss           0x0200f8b0        0x0 accloud.a(rsa.o)
 .bss           0x0200f8b0        0x0 accloud.a(zc_client_manag)
 .bss           0x0200f8b0        0x0 accloud.a(zc_cloud_event.)
 .bss           0x0200f8b0        0x0 accloud.a(zc_moudle_manag)
 .bss           0x0200f8b0        0x0 ./thirdPartyLib/libairkiss.a(airkiss.o)
 .bss           0x0200f8b0        0x0 /usr/bin/../lib/gcc/arm-none-eabi/4.8.4/libgcc.a(_udivsi3.o)
 .bss           0x0200f8b0        0x0 /usr/bin/../lib/gcc/arm-none-eabi/4.8.4/libgcc.a(_divsi3.o)
 .bss           0x0200f8b0        0x0 /usr/bin/../lib/gcc/arm-none-eabi/4.8.4/libgcc.a(_dvmd_tls.o)
 .bss           0x0200f8b0        0x0 /usr/bin/../lib/gcc/arm-none-eabi/4.8.4/libgcc.a(_aeabi_uldivmod.o)
 .bss           0x0200f8b0        0x0 /usr/bin/../lib/gcc/arm-none-eabi/4.8.4/libgcc.a(bpabi.o)
 .bss           0x0200f8b0        0x0 /usr/bin/../lib/gcc/arm-none-eabi/4.8.4/libgcc.a(_divdi3.o)
 .bss           0x0200f8b0        0x0 /usr/bin/../lib/gcc/arm-none-eabi/4.8.4/libgcc.a(_udivdi3.o)
 .bss           0x0200f8b0        0x0 /usr/bin/../lib/gcc/arm-none-eabi/4.8.4/libgcc.a(_clzsi2.o)
 .bss           0x0200f8b0        0x0 /usr/bin/../lib/gcc/arm-none-eabi/4.8.4/../../../../arm-none-eabi/lib/libg_s.a(lib_a-atoi.o)
 .bss           0x0200f8b0        0x0 /usr/bin/../lib/gcc/arm-none-eabi/4.8.4/../../../../arm-none-eabi/lib/libg_s.a(lib_a-errno.o)
 .bss           0x0200f8b0        0x0 /usr/bin/../lib/gcc/arm-none-eabi/4.8.4/../../../../arm-none-eabi/lib/libg_s.a(lib_a-impure.o)
 .bss           0x0200f8b0        0x0 /usr/bin/../lib/gcc/arm-none-eabi/4.8.4/../../../../arm-none-eabi/lib/libg_s.a(lib_a-malloc.o)
 .bss           0x0200f8b0        0x0 /usr/bin/../lib/gcc/arm-none-eabi/4.8.4/../../../../arm-none-eabi/lib/libg_s.a(lib_a-memmove.o)
 .bss           0x0200f8b0        0x0 /usr/bin/../lib/gcc/arm-none-eabi/4.8.4/../../../../arm-none-eabi/lib/libg_s.a(lib_a-nano-freer.o)
 .bss           0x0200f8b0        0x0 /usr/bin/../lib/gcc/arm-none-eabi/4.8.4/../../../../arm-none-eabi/lib/libg_s.a(lib_a-nano-mallocr.o)
 .bss           0x0200f8b0        0x0 /usr/bin/../lib/gcc/arm-none-eabi/4.8.4/../../../../arm-none-eabi/lib/libg_s.a(lib_a-rand.o)
 .bss           0x0200f8b0        0x0 /usr/bin/../lib/gcc/arm-none-eabi/4.8.4/../../../../arm-none-eabi/lib/libg_s.a(lib_a-sbrkr.o)
 .bss           0x0200f8b0        0x0 /usr/bin/../lib/gcc/arm-none-eabi/4.8.4/../../../../arm-none-eabi/lib/libg_s.a(lib_a-strcasecmp.o)
 .bss           0x0200f8b0        0x0 /usr/bin/../lib/gcc/arm-none-eabi/4.8.4/../../../../arm-none-eabi/lib/libg_s.a(lib_a-strcpy.o)
 .bss           0x0200f8b0        0x0 /usr/bin/../lib/gcc/arm-none-eabi/4.8.4/../../../../arm-none-eabi/lib/libg_s.a(lib_a-strncmp.o)
 .bss           0x0200f8b0        0x0 /usr/bin/../lib/gcc/arm-none-eabi/4.8.4/../../../../arm-none-eabi/lib/libg_s.a(lib_a-strtol.o)
 .bss           0x0200f8b0        0x0 /usr/bin/../lib/gcc/arm-none-eabi/4.8.4/../../../../arm-none-eabi/lib/libg_s.a(lib_a-strtoul.o)
 .bss           0x0200f8b0        0x0 /usr/bin/../lib/gcc/arm-none-eabi/4.8.4/../../../../arm-none-eabi/lib/libg_s.a(lib_a-vsnprintf.o)
 .bss           0x0200f8b0        0x0 /usr/bin/../lib/gcc/arm-none-eabi/4.8.4/../../../../arm-none-eabi/lib/libg_s.a(lib_a-ctype_.o)
 .bss           0x0200f8b0        0x0 /usr/bin/../lib/gcc/arm-none-eabi/4.8.4/../../../../arm-none-eabi/lib/libg_s.a(lib_a-reent.o)
 .bss           0x0200f8b0        0x0 /usr/bin/../lib/gcc/arm-none-eabi/4.8.4/../../../../arm-none-eabi/lib/libg_s.a(lib_a-svfprintf.o)
 .bss           0x0200f8b0        0x0 /usr/bin/../lib/gcc/arm-none-eabi/4.8.4/../../../../arm-none-eabi/lib/libg_s.a(lib_a-vfprintf_i.o)
 .bss           0x0200f8b0        0x0 /usr/bin/../lib/gcc/arm-none-eabi/4.8.4/../../../../arm-none-eabi/lib/libg_s.a(lib_a-memchr-stub.o)
 .bss           0x0200f8b0        0x0 /usr/bin/../lib/gcc/arm-none-eabi/4.8.4/../../../../arm-none-eabi/lib/libg_s.a(lib_a-nano-reallocr.o)
 .bss           0x0200f8b0        0x0 /usr/bin/../lib/gcc/arm-none-eabi/4.8.4/../../../../arm-none-eabi/lib/libg_s.a(lib_a-nano-msizer.o)
 *(EXCLUDE_FILE(icomlib.a:boot-hiflying.o) .bss*)
 .bss.periodic_timer.7585
                0x0200f8b0       0x18 ssv6060-main.o
 .bss.g_s8RecvBuf
                0x0200f8c8        0x4 ssv6060-main.o
 .bss.timerlist
                0x0200f8cc        0x4 icomlib.a(etimer.o)
 .bss.next_expiration
                0x0200f8d0        0x8 icomlib.a(etimer.o)
 .bss.g_aLogLevel
                0x0200f8d8       0x20 icomlib.a(printf.o)
                0x0200f8d8                g_aLogLevel
 .bss.fevent    0x0200f8f8        0x1 icomlib.a(process.o)
 *fill*         0x0200f8f9        0x3 
 .bss.receiver.4793
                0x0200f8fc        0x4 icomlib.a(process.o)
 .bss.p.4794    0x0200f900        0x4 icomlib.a(process.o)
 .bss.ev.4791   0x0200f904        0x1 icomlib.a(process.o)
 .bss.nevents   0x0200f905        0x1 icomlib.a(process.o)
 .bss.poll_requested
                0x0200f906        0x1 icomlib.a(process.o)
 *fill*         0x0200f907        0x1 
 .bss.process_current
                0x0200f908        0x4 icomlib.a(process.o)
                0x0200f908                process_current
 .bss.process_list
                0x0200f90c        0x4 icomlib.a(process.o)
                0x0200f90c                process_list
 .bss.events    0x0200f910      0x180 icomlib.a(process.o)
 .bss.snum.4809
                0x0200fa90        0x1 icomlib.a(process.o)
 *fill*         0x0200fa91        0x3 
 .bss.data.4792
                0x0200fa94        0x4 icomlib.a(process.o)
 .bss.lastevent
                0x0200fa98        0x1 icomlib.a(process.o)
 *fill*         0x0200fa99        0x7 
 .bss.current_clock
                0x0200faa0        0x8 icomlib.a(clock.o)
 .bss.current_seconds
                0x0200faa8        0x4 icomlib.a(clock.o)
 .bss.gDisableRTS
                0x0200faac        0x1 icomlib.a(contiki-main.o)
                0x0200faac                gDisableRTS
 *fill*         0x0200faad        0x3 
 .bss.idle_count
                0x0200fab0        0x4 icomlib.a(contiki-main.o)
                0x0200fab0                idle_count
 .bss.dbg_write_overrun
                0x0200fab4        0x4 icomlib.a(debug-uart.o)
 .bss.g_modulator_pll_reset
                0x0200fab8        0x4 icomlib.a(hw_init.o)
                0x0200fab8                g_modulator_pll_reset
 .bss.last.4468
                0x0200fabc        0x4 icomlib.a(ssv_lib.o)
 .bss.pwmlist   0x0200fac0       0x24 icomlib.a(swpwm.o)
 *fill*         0x0200fae4        0x4 
 .bss.currtick  0x0200fae8        0x8 icomlib.a(swpwm.o)
 .bss.wdog_timer.4416
                0x0200faf0       0x18 icomlib.a(wdog_api.o)
 .bss.wdogen.4417
                0x0200fb08        0x1 icomlib.a(wdog_api.o)
 *fill*         0x0200fb09        0x3 
 .bss.nowCount.8093
                0x0200fb0c        0x4 icomlib.a(dbg-atcmd-api.o)
 .bss.temp_timer.8119
                0x0200fb10       0x18 icomlib.a(dbg-atcmd-api.o)
 .bss.tx_timer.8106
                0x0200fb28       0x18 icomlib.a(dbg-atcmd-api.o)
 .bss.tx_timer.8092
                0x0200fb40       0x18 icomlib.a(dbg-atcmd-api.o)
 .bss.stTemperature
                0x0200fb58        0x4 icomlib.a(dbg-atcmd-api.o)
                0x0200fb58                stTemperature
 .bss.channel_log
                0x0200fb5c      0x1f4 icomlib.a(dbg-atcmd-api.o)
                0x0200fb5c                channel_log
 .bss.flash_buf
                0x0200fd50        0x4 icomlib.a(dbg-atcmd-api.o)
                0x0200fd50                flash_buf
 .bss.rtbl_temperature
                0x0200fd54        0x4 icomlib.a(drv_phy.o)
                0x0200fd54                rtbl_temperature
 .bss.pbuf_id_num
                0x0200fd58        0x2 icomlib.a(drv_pktbuf.o)
 .bss.pbuf_id_out_ptr
                0x0200fd5a        0x2 icomlib.a(drv_pktbuf.o)
 .bss.pbuf_id_queue
                0x0200fd5c      0x100 icomlib.a(drv_pktbuf.o)
 .bss.pbuf_id_in_ptr
                0x0200fe5c        0x2 icomlib.a(drv_pktbuf.o)
 *fill*         0x0200fe5e        0x2 
 .bss.p_scan_custom_args.7483
                0x0200fe60        0x4 icomlib.a(ieee80211_mgmt.)
 .bss.addr.7529
                0x0200fe64        0x4 icomlib.a(ieee80211_mgmt.)
 .bss.available_index
                0x0200fe68        0x1 icomlib.a(ieee80211_mgmt.)
 *fill*         0x0200fe69        0x7 
 .bss.timer.7481
                0x0200fe70       0x18 icomlib.a(ieee80211_mgmt.)
 .bss.timer.7518
                0x0200fe88       0x18 icomlib.a(ieee80211_mgmt.)
 .bss.max_channel.7485
                0x0200fea0        0x1 icomlib.a(ieee80211_mgmt.)
 *fill*         0x0200fea1        0x7 
 .bss.timer.7470
                0x0200fea8       0x18 icomlib.a(ieee80211_mgmt.)
 .bss.formP.7482
                0x0200fec0        0x4 icomlib.a(ieee80211_mgmt.)
 .bss.channel   0x0200fec4        0x4 icomlib.a(ieee80211_mgmt.)
 .bss.checkAPCnt
                0x0200fec8        0x1 icomlib.a(ieee80211_mgmt.)
                0x0200fec8                checkAPCnt
 *fill*         0x0200fec9        0x3 
 .bss.addrptr.7530
                0x0200fecc        0x4 icomlib.a(ieee80211_mgmt.)
 .bss.seqctrl   0x0200fed0        0x4 icomlib.a(ieee80211_mgmt.)
 .bss.req_count
                0x0200fed4        0x1 icomlib.a(ieee80211_mgmt.)
 .bss.cur_channel.7484
                0x0200fed5        0x1 icomlib.a(ieee80211_mgmt.)
 .bss.getipcnt.7519
                0x0200fed6        0x1 icomlib.a(ieee80211_mgmt.)
 *fill*         0x0200fed7        0x1 
 .bss.scantime_in_ms.7486
                0x0200fed8        0x2 icomlib.a(ieee80211_mgmt.)
 .bss.gOsFromISR
                0x0200feda        0x1 icomlib.a(irq.o)
                0x0200feda                gOsFromISR
 .bss.main_irq_tbl
                0x0200fedb      0x180 icomlib.a(irq.o)
 .bss.losscnt   0x0201005b        0x1 icomlib.a(powersave.o)
                0x0201005b                losscnt
 .bss.p_sta_info.8514
                0x0201005c        0x4 icomlib.a(soft_ap.o)
 .bss.beacon_loop_cnt.8530
                0x02010060        0x2 icomlib.a(soft_ap.o)
 *fill*         0x02010062        0x2 
 .bss.g_idle_counter
                0x02010064        0x4 icomlib.a(soft_ap.o)
                0x02010064                g_idle_counter
 .bss.mgm_timer.8498
                0x02010068       0x18 icomlib.a(soft_ap.o)
 .bss.index_sta.8513
                0x02010080        0x1 icomlib.a(soft_ap.o)
 *fill*         0x02010081        0x7 
 .bss.null_data_timer.8510
                0x02010088       0x18 icomlib.a(soft_ap.o)
 .bss.rlt.8529  0x020100a0        0x4 icomlib.a(soft_ap.o)
 *fill*         0x020100a4        0x4 
 .bss.timer.8527
                0x020100a8       0x18 icomlib.a(soft_ap.o)
 .bss.g_softap_state_tmp
                0x020100c0        0x1 icomlib.a(soft_ap.o)
                0x020100c0                g_softap_state_tmp
 *fill*         0x020100c1        0x3 
 .bss.filterdebug
                0x020100c4        0x4 icomlib.a(ssv6200_rx.o)
                0x020100c4                filterdebug
 .bss.spwsavecnt.6492
                0x020100c8        0x1 icomlib.a(ssv6200_rx.o)
 *fill*         0x020100c9        0x3 
 .bss.rxque_record
                0x020100cc       0x7c icomlib.a(ssv6200_rx.o)
 .bss.filter_ethaddr
                0x02010148        0x6 icomlib.a(ssv6200_rx.o)
                0x02010148                filter_ethaddr
 *fill*         0x0201014e        0x2 
 .bss.filtercount
                0x02010150        0x4 icomlib.a(ssv6200_rx.o)
                0x02010150                filtercount
 .bss.g_tx_config
                0x02010154        0xc icomlib.a(ssvradio.o)
                0x02010154                g_tx_config
 .bss.fc_subtype_type_ver.6179
                0x02010160        0x2 icomlib.a(ssvradio.o)
 *fill*         0x02010162        0x6 
 .bss.timer.5919
                0x02010168       0x18 icomlib.a(shell-ping.o)
 .bss.g_uip_ip_buf
                0x02010180        0x4 icomlib.a(shell-ping.o)
                0x02010180                g_uip_ip_buf
 .bss.remoteaddr
                0x02010184        0x4 icomlib.a(shell-ping.o)
 .bss.g_uip_icmp_buf
                0x02010188        0x4 icomlib.a(shell-ping.o)
                0x02010188                g_uip_icmp_buf
 .bss.ipid.5912
                0x0201018c        0x2 icomlib.a(shell-ping.o)
 .bss.ping_loop_i
                0x0201018e        0x2 icomlib.a(shell-ping.o)
 .bss.seqno.5913
                0x02010190        0x2 icomlib.a(shell-ping.o)
 *fill*         0x02010192        0x6 
 .bss.timer.7178
                0x02010198       0x18 icomlib.a(airkiss.o)
 .bss.last_pages_are_active.4488
                0x020101b0        0x1 icomlib.a(cfs-coffee.o)
 .bss.skip_pages.4487
                0x020101b1        0x1 icomlib.a(cfs-coffee.o)
 *fill*         0x020101b2        0x2 
 .bss.protected_mem
                0x020101b4       0x94 icomlib.a(cfs-coffee.o)
 .bss.uart_bin_mode
                0x02010248        0x4 icomlib.a(console.o)
                0x02010248                uart_bin_mode
 *fill*         0x0201024c        0x4 
 .bss.au8spi_data
                0x02010250      0x110 icomlib.a(drv_flash.o)
 .bss.u32flash_base_addr
                0x02010360        0x4 icomlib.a(drv_flash.o)
 *fill*         0x02010364        0xc 
 .bss.flash_cache_buffer
                0x02010370     0x1000 icomlib.a(drv_flash.o)
 .bss.au8spi_cmd
                0x02011370      0x110 icomlib.a(drv_flash.o)
 .bss.smart     0x02011480       0x54 icomlib.a(smartComm.o)
 .bss.unicast_connection.7214
                0x020114d4       0x18 icomlib.a(smartComm.o)
 *fill*         0x020114ec        0x4 
 .bss.timer     0x020114f0       0x18 icomlib.a(smartConf.o)
 .bss.recePhone
                0x02011508      0x384 icomlib.a(smartConf.o)
 .bss.user      0x0201188c        0xc icomlib.a(userSmart.o)
 .bss.seqno     0x02011898        0x4 icomlib.a(ieee80211_mac.o)
 .bss.nPingCount
                0x0201189c        0x4 icomlib.a(ieee80211_mac.o)
                0x0201189c                nPingCount
 .bss.testcnt   0x020118a0        0x4 icomapps.a(atcmd.o)
                0x020118a0                testcnt
 .bss.httpsock.9290
                0x020118a4        0x4 icomapps.a(atcmd.o)
 .bss.hostname  0x020118a8       0x80 icomapps.a(atcmd.o)
 .bss.buffer_in_dynamic
                0x02011928        0x4 icomapps.a(atcmd.o)
 .bss.buffer_out_dynamic
                0x0201192c        0x4 icomapps.a(atcmd.o)
 .bss.successcnt
                0x02011930        0x4 icomapps.a(atcmd.o)
                0x02011930                successcnt
 *fill*         0x02011934        0x4 
 .bss.httptimeout.9289
                0x02011938       0x18 icomapps.a(atcmd.o)
 .bss.ghttprun  0x02011950        0x1 icomapps.a(atcmd.o)
 .bss.bTXRun    0x02011951        0x1 icomapps.a(atcmd.o)
 *fill*         0x02011952        0x6 
 .bss.periodic_timer.7609
                0x02011958       0x18 icomapps.a(socket_app.o)
 .bss.periodic_timer.7599
                0x02011970       0x18 icomapps.a(socket_app.o)
 .bss.gSocketNetPara
                0x02011988      0x12c icomapps.a(socket_app.o)
 *fill*         0x02011ab4        0x4 
 .bss.blinkTimer.7569
                0x02011ab8       0x18 icomapps.a(tcp_server_demo)
 .bss.blinkcount.7570
                0x02011ad0        0x4 icomapps.a(tcp_server_demo)
 *fill*         0x02011ad4        0x4 
 .bss.tcpServer_timer.7581
                0x02011ad8       0x18 icomapps.a(tcp_server_demo)
 .bss.count.6148
                0x02011af0        0x1 icomapps.a(ota_api.o)
 *fill*         0x02011af1        0x7 
 .bss.periodic_timer.6160
                0x02011af8       0x18 icomapps.a(ota_api.o)
 .bss.periodic_timer.6174
                0x02011b10       0x18 icomapps.a(ota_api.o)
 .bss.ota_timer.6147
                0x02011b28       0x18 icomapps.a(ota_api.o)
 .bss.SerialEnable
                0x02011b40        0x4 icomlib.a(serial_api.o)
 .bss.bcast_addr
                0x02011b44        0x4 contikilib.a(dhcps.o)
 .bss.lease.7301
                0x02011b48        0x4 contikilib.a(dhcps.o)
 .bss.any_addr  0x02011b4c        0x4 contikilib.a(dhcps.o)
 .bss.send_conn.7300
                0x02011b50        0x4 contikilib.a(dhcps.o)
 .bss.config    0x02011b54        0x4 contikilib.a(dhcps.o)
 .bss.conn.7299
                0x02011b58        0x4 contikilib.a(dhcps.o)
 .bss.resolv_conn
                0x02011b5c        0x4 contikilib.a(resolv.o)
 .bss.seqno     0x02011b60        0x1 contikilib.a(resolv.o)
 .bss.nanswers.5480
                0x02011b61        0x1 contikilib.a(resolv.o)
 .bss.i.5481    0x02011b62        0x1 contikilib.a(resolv.o)
 .bss.lseqi.5509
                0x02011b63        0x1 contikilib.a(resolv.o)
 *fill*         0x02011b64        0x4 
 .bss.retry     0x02011b68       0x18 contikilib.a(resolv.o)
 .bss.nquestions.5479
                0x02011b80        0x1 contikilib.a(resolv.o)
 .bss.lseq.5508
                0x02011b81        0x1 contikilib.a(resolv.o)
 .bss.i.5519    0x02011b82        0x1 contikilib.a(resolv.o)
 *fill*         0x02011b83        0x1 
 .bss.names     0x02011b84       0xc0 contikilib.a(resolv.o)
 .bss.i.5507    0x02011c44        0x1 contikilib.a(resolv.o)
 *fill*         0x02011c45        0x1 
 .bss.aligned.5490
                0x02011c46        0xe contikilib.a(resolv.o)
 .bss.started   0x02011c54        0x1 contikilib.a(simple-udp.o)
 .bss.databuffer
                0x02011c55      0x5ea contikilib.a(simple-udp.o)
 *fill*         0x0201223f        0x1 
 .bss.currconn.5291
                0x02012240        0x4 contikilib.a(socket_driver.o)
 .bss.msg.5224  0x02012244        0x8 contikilib.a(socket_driver.o)
 .bss.recvoffset
                0x0201224c        0x2 contikilib.a(socket_driver.o)
                0x0201224c                recvoffset
 *fill*         0x0201224e        0x2 
 .bss.msg.5292  0x02012250        0x8 contikilib.a(socket_driver.o)
 .bss.currconn.5280
                0x02012258        0x4 contikilib.a(socket_driver.o)
 .bss.enable_change_time
                0x0201225c        0x1 contikilib.a(tcpip.o)
 .bss.i.7523    0x0201225d        0x1 contikilib.a(tcpip.o)
 .bss.i.7531    0x0201225e        0x1 contikilib.a(tcpip.o)
 *fill*         0x0201225f        0x1 
 .bss.arptimer.7490
                0x02012260       0x18 contikilib.a(tcpip.o)
 .bss.s         0x02012278       0x7c contikilib.a(tcpip.o)
 .bss.i.7617    0x020122f4        0x1 contikilib.a(tcpip.o)
 .bss.i.7605    0x020122f5        0x1 contikilib.a(tcpip.o)
 .bss.i.7514    0x020122f6        0x1 contikilib.a(tcpip.o)
 *fill*         0x020122f7        0x1 
 .bss.periodic  0x020122f8       0x18 contikilib.a(tcpip.o)
 .bss.outputfunc
                0x02012310        0x4 contikilib.a(tcpip.o)
 .bss.i.7569    0x02012314        0x1 contikilib.a(tcpip.o)
 *fill*         0x02012315        0x1 
 .bss.change_time
                0x02012316        0x2 contikilib.a(tcpip.o)
 .bss.tmpage    0x02012318        0x1 contikilib.a(uip_arp.o)
 *fill*         0x02012319        0x1 
 .bss.ipaddr    0x0201231a        0x4 contikilib.a(uip_arp.o)
 .bss.arp_table
                0x0201231e       0x60 contikilib.a(uip_arp.o)
 *fill*         0x0201237e        0x2 
 .bss.polltimer.4884
                0x02012380       0x18 contikilib.a(uip_arp.o)
 .bss.arptime   0x02012398        0x4 contikilib.a(uip_arp.o)
 *fill*         0x0201239c        0x4 
 .bss.timer.4873
                0x020123a0       0x18 contikilib.a(uip_arp.o)
 .bss.uip_lladdr
                0x020123b8        0x6 contikilib.a(uip.o)
                0x020123b8                uip_lladdr
 .bss.ipid      0x020123be        0x2 contikilib.a(uip.o)
 .bss.iss       0x020123c0        0x4 contikilib.a(uip.o)
 .bss.tmp16     0x020123c4        0x2 contikilib.a(uip.o)
 .bss.lastport  0x020123c6        0x2 contikilib.a(uip.o)
 .bss.c         0x020123c8        0x1 contikilib.a(uip.o)
 .bss.opt       0x020123c9        0x1 contikilib.a(uip.o)
 *fill*         0x020123ca        0x6 
 .bss.ntp_timer.4840
                0x020123d0       0x18 contikilib.a(ntp_client.o)
 .bss.pPacket   0x020123e8        0x4 contikilib.a(ntp_client.o)
 .bss.ntp       0x020123ec       0x3c contikilib.a(ntp_client.o)
 .bss.packet    0x02012428       0x30 contikilib.a(ntp_client.o)
 .bss.s         0x02012458       0x48 contikilib.a(dhcpc.o)
 .bss.xid       0x020124a0        0x4 contikilib.a(dhcpc.o)
 .bss.dhcpState
                0x020124a4        0x1 contikilib.a(dhcpc.o)
                0x020124a4                dhcpState
 .bss.g_u8ClientSendLen
                0x020124a5        0x1 accloud.a(zc_hf_adpter.o)
                0x020124a5                g_u8ClientSendLen
 *fill*         0x020124a6        0x2 
 .bss.g_u32WifiPowerStatus
                0x020124a8        0x4 accloud.a(ac_hal.o)
                0x020124a8                g_u32WifiPowerStatus
 .bss.g_u8RecvDataLen
                0x020124ac        0x1 accloud.a(ac_hal.o)
                0x020124ac                g_u8RecvDataLen
 .bss.g_CurType
                0x020124ad        0x1 accloud.a(ac_hal.o)
                0x020124ad                g_CurType
 .bss.g_u8EqVersion
                0x020124ae        0x4 accloud.a(ac_hal.o)
                0x020124ae                g_u8EqVersion
 *fill*         0x020124b2        0x2 
 .bss.g_u32CloudStatus
                0x020124b4        0x4 accloud.a(ac_hal.o)
                0x020124b4                g_u32CloudStatus
 .bss.g_u8CurPktLen
                0x020124b8        0x1 accloud.a(ac_hal.o)
                0x020124b8                g_u8CurPktLen
 *fill*         0x020124b9        0x3 
 .bss.__malloc_sbrk_start
                0x020124bc        0x4 /usr/bin/../lib/gcc/arm-none-eabi/4.8.4/../../../../arm-none-eabi/lib/libg_s.a(lib_a-nano-mallocr.o)
                0x020124bc                __malloc_sbrk_start
 .bss.__malloc_free_list
                0x020124c0        0x4 /usr/bin/../lib/gcc/arm-none-eabi/4.8.4/../../../../arm-none-eabi/lib/libg_s.a(lib_a-nano-mallocr.o)
                0x020124c0                __malloc_free_list
 *(EXCLUDE_FILE(icomlib.a:boot-hiflying.o) COMMON)
 COMMON         0x020124c4        0x2 ssv6060-main.o
                0x020124c4                process_para
 *fill*         0x020124c6        0x2 
 COMMON         0x020124c8     0x121a icomlib.a(atcmd_icomm.o)
                0x020124c8                arp_packet_len
                0x020124ca                arp_packet_buff
                0x0201251c                tx_pktbuf
                0x02012528                sk_pbuff
                0x02012540                ap_list
                0x020136d4                CMD_NUM
                0x020136d5                DATA_STATUS
                0x020136d6                gNetStatus
 *fill*         0x020136e2        0x2 
 COMMON         0x020136e4       0x80 icomlib.a(contiki-main.o)
                0x020136e4                i_config
 COMMON         0x02013764        0x0 icomlib.a(hw_init.o)
 *fill*         0x02013764        0x4 
 COMMON         0x02013768      0x276 icomlib.a(systemconf.o)
                0x02013768                gwifistatus
                0x02013940                gCabrioConf
 *fill*         0x020139de        0x2 
 COMMON         0x020139e0        0x8 icomlib.a(crypthw.o)
                0x020139e0                g_soc_table
                0x020139e4                pGSRAM_KEY
 COMMON         0x020139e8       0xd0 icomlib.a(drv_phy.o)
                0x020139e8                papd_ltbl_pm
                0x02013a50                papd_ltbl_am
 COMMON         0x02013ab8      0x268 icomlib.a(ieee80211_mgmt.)
                0x02013ab8                rate_table
                0x02013ad8                mgmtdata
                0x02013be4                rssiLevelChangCnt
                0x02013be5                extended_rate_table
                0x02013c08                gwpa_ctx
 COMMON         0x02013d20       0x38 icomlib.a(powersave.o)
                0x02013d20                gNextsleeptime
                0x02013d30                gussleeptime
                0x02013d38                gNextwaketime
                0x02013d48                exmode
                0x02013d50                gusbeaconinterval
 COMMON         0x02013d58      0x118 icomlib.a(soft_ap.o)
                0x02013d58                gwpa_ap
 COMMON         0x02013e70      0x188 icomlib.a(ssv6200_rx.o)
                0x02013e70                rx_que
 COMMON         0x02013ff8      0xcfa icomlib.a(wep.o)
                0x02013ff8                wep_rc4
                0x02014100                wep
 *fill*         0x02014cf2        0x2 
 COMMON         0x02014cf4       0x80 icomlib.a(airkiss.o)
                0x02014cf4                akcontex
 COMMON         0x02014d74      0x114 icomlib.a(console.o)
                0x02014d74                flash_write_ptr
                0x02014d78                flash_address
                0x02014d7c                msgdata
 COMMON         0x02014e88       0x1c icomlib.a(drv_flash.o)
                0x02014e88                u32cmd_lenx
                0x02014e8c                i_cabrio_flash_cmd
                0x02014e9c                u32spi_addr
                0x02014ea0                u32cmd_len
 COMMON         0x02014ea4        0x4 icomlib.a(fence.o)
                0x02014ea4                addr_stack_fence_local
 COMMON         0x02014ea8        0x4 icomlib.a(smartComm.o)
                0x02014ea8                gSocketNetStatus
 COMMON         0x02014eac      0x108 icomlib.a(smartConf.o)
                0x02014eac                smart_rc4
 *fill*         0x02014fb4        0x4 
 COMMON         0x02014fb8       0x18 icomlib.a(ieee80211_mac.o)
                0x02014fb8                rx_skb
 COMMON         0x02014fd0        0x4 icomlib.a(ieee80211_net.o)
                0x02014fd0                nPingEcho
 COMMON         0x02014fd4       0x68 icomapps.a(soft_ap_init.o)
                0x02014fd4                g_softap_lease
                0x02015024                g_softap_config
 COMMON         0x0201503c      0x10c icomapps.a(tcp_server_demo)
                0x0201503c                app_res
 COMMON         0x02015148     0x181c icomapps.a(ota_api.o)
                0x02015148                ota_conf
 COMMON         0x02016964        0x1 contikilib.a(resolv.o)
                0x02016964                resolv_event_found
 COMMON         0x02016965        0x1 contikilib.a(tcpip.o)
                0x02016965                tcpip_event
 *fill*         0x02016966        0x2 
 COMMON         0x02016968      0xa14 contikilib.a(uip.o)
                0x02016968                uip_len
                0x0201696c                uip_sappdata
                0x02016970                uip_acc32
                0x02016974                uip_aligned_buf
                0x02016f60                uip_flags
                0x02016f64                uip_udp_conn
                0x02016f68                uip_appdata
                0x02016f6c                uip_conn
                0x02016f70                uip_conns
                0x020171c8                uip_listenports
                0x020171dc                uip_draddr
                0x020171e0                uip_netmask
                0x020171e4                uip_hostaddr
                0x020171e8                uip_slen
                0x020171ec                uip_udp_conns
 COMMON         0x0201737c      0x10c contikilib.a(dhcpc.o)
                0x0201737c                eventdata
 COMMON         0x02017488      0x1c0 accloud.a(zc_configuratio)
                0x02017488                g_struRegisterInfo
                0x02017514                g_struZcConfigDb
 COMMON         0x02017648       0x88 accloud.a(zc_protocol_con)
                0x02017648                g_struProtocolController
 COMMON         0x020176d0       0x50 accloud.a(zc_timer.o)
                0x020176d0                g_struTimer
 COMMON         0x02017720     0x1a76 accloud.a(zc_hf_adpter.o)
                0x02017720                g_struClientBuffer
                0x02017980                g_u16TcpMss
                0x02017982                g_u8BcSendBuffer
                0x020179e8                g_struHfAdapter
                0x02017a2c                g_struRecvBuffer
                0x02017c90                g_struHfTimer
                0x02017d80                g_u8MsgBuildBuffer
                0x02017fd8                g_struSendQueue
                0x02018000                g_struRecvQueue
                0x02018028                g_u16TiTimerCount
                0x0201803c                g_struRetxBuffer
                0x0201829c                g_struSendBuffer
                0x020189bc                g_struUartBuffer
                0x02018dac                g_u8recvbuffer
                0x02019194                g_u16LocalPort
 COMMON         0x02019196      0x200 accloud.a(ac_hal.o)
                0x02019196                g_u8DevMsgBuildBuffer
 *fill*         0x02019396        0x2 
 COMMON         0x02019398     0x1868 accloud.a(bignum.o)
                0x02019398                O_T1
                0x020193f0                Y
                0x02019448                O_RR
                0x020194a0                O_T
                0x020194f8                O_W
                0x0201aaf8                O_T2
                0x0201ab50                Z
                0x0201aba8                X
 COMMON         0x0201ac00      0x148 accloud.a(rsa.o)
                0x0201ac00                T2
                0x0201ac58                T
                0x0201acb0                T1
                0x0201ad08                buf
 COMMON         0x0201ad48       0x28 accloud.a(zc_client_manag)
                0x0201ad48                g_struClientInfo
 COMMON         0x0201ad70        0x4 /usr/bin/../lib/gcc/arm-none-eabi/4.8.4/../../../../arm-none-eabi/lib/libg_s.a(lib_a-reent.o)
                0x0201ad70                errno
                0x0201ad74                __bss_end__ = .
                0x0201ad80                . = ALIGN (0x10)
 *fill*         0x0201ad74        0xc 
                0x030001e0                _btext_beg_src = LOADADDR (boot_in_sram)
                0x02029000                _btext_beg_dst = _vma_boot_text_beg
                0x02029cc0                _btext_end_dst = (_btext_beg_dst + SIZEOF (boot_in_sram))

boot_in_sram    0x02029000      0xcc0 load address 0x030001e0
                0x02029000                . = ALIGN (0x4)
 icomlib.a:boot-hiflying.o(.text)
 .text          0x02029000        0x0 icomlib.a(boot-hiflying.o)
 icomlib.a:boot-hiflying.o(.text.*)
 .text.boot_memcpy
                0x02029000       0x1c icomlib.a(boot-hiflying.o)
                0x02029000                boot_memcpy
 .text.drv_boot_uart_rx
                0x0202901c       0x20 icomlib.a(boot-hiflying.o)
                0x0202901c                drv_boot_uart_rx
 .text.drv_boot_uart_tx
                0x0202903c       0x24 icomlib.a(boot-hiflying.o)
                0x0202903c                drv_boot_uart_tx
 .text.boot_put_hex
                0x02029060       0x28 icomlib.a(boot-hiflying.o)
                0x02029060                boot_put_hex
 .text.boot_print
                0x02029088       0x58 icomlib.a(boot-hiflying.o)
                0x02029088                boot_print
 .text.boot_get_args
                0x020290e0      0x178 icomlib.a(boot-hiflying.o)
                0x020290e0                boot_get_args
 .text.boot_uart_chk_sum
                0x02029258       0x30 icomlib.a(boot-hiflying.o)
                0x02029258                boot_uart_chk_sum
 .text.boot_fw_upgrade_response0
                0x02029288       0x28 icomlib.a(boot-hiflying.o)
                0x02029288                boot_fw_upgrade_response0
 .text.boot_fw_upgrade_response1
                0x020292b0       0x10 icomlib.a(boot-hiflying.o)
                0x020292b0                boot_fw_upgrade_response1
 .text.boot_flash_get_cache_buffer_address
                0x020292c0        0xc icomlib.a(boot-hiflying.o)
                0x020292c0                boot_flash_get_cache_buffer_address
 .text.drv_boot_flash_command_init
                0x020292cc       0x7c icomlib.a(boot-hiflying.o)
                0x020292cc                drv_boot_flash_command_init
 .text.drv_boot_flash_wait_spi_busy
                0x02029348       0x34 icomlib.a(boot-hiflying.o)
                0x02029348                drv_boot_flash_wait_spi_busy
 .text.drv_boot_flash_write_cmd
                0x0202937c       0x14 icomlib.a(boot-hiflying.o)
                0x0202937c                drv_boot_flash_write_cmd
 .text.drv_boot_flash_read_spi_status_regsiter
                0x02029390       0x64 icomlib.a(boot-hiflying.o)
                0x02029390                drv_boot_flash_read_spi_status_regsiter
 .text.drv_boot_flash_wait_spi_status_regsiter
                0x020293f4       0x3c icomlib.a(boot-hiflying.o)
                0x020293f4                drv_boot_flash_wait_spi_status_regsiter
 .text.drv_boot_flash_write_enable
                0x02029430       0x48 icomlib.a(boot-hiflying.o)
                0x02029430                drv_boot_flash_write_enable
 .text.drv_boot_flash_sector_erase
                0x02029478       0x54 icomlib.a(boot-hiflying.o)
                0x02029478                drv_boot_flash_sector_erase
 .text.drv_boot_flash_page_program
                0x020294cc       0x5c icomlib.a(boot-hiflying.o)
                0x020294cc                drv_boot_flash_page_program
 .text.boot_flash_flush_cache_buffer
                0x02029528       0x7c icomlib.a(boot-hiflying.o)
                0x02029528                boot_flash_flush_cache_buffer
 .text.boot_fw_upgrade_busy_polling
                0x020295a4      0x214 icomlib.a(boot-hiflying.o)
                0x020295a4                boot_fw_upgrade_busy_polling
 .text.boot_strcmp
                0x020297b8       0x30 icomlib.a(boot-hiflying.o)
                0x020297b8                boot_strcmp
 .text.boot_start_fw_upgrade
                0x020297e8       0xf0 icomlib.a(boot-hiflying.o)
                0x020297e8                boot_start_fw_upgrade
 .text.boot_copy_nor_to_sram
                0x020298d8       0x20 icomlib.a(boot-hiflying.o)
                0x020298d8                boot_copy_nor_to_sram
 .text.boot_clear_bss
                0x020298f8       0x18 icomlib.a(boot-hiflying.o)
                0x020298f8                boot_clear_bss
 .text.boot_main
                0x02029910      0x1c4 icomlib.a(boot-hiflying.o)
                0x02029910                boot_main
 icomlib.a:boot-hiflying.o(.rodata)
 .rodata        0x02029ad4       0x20 icomlib.a(boot-hiflying.o)
 icomlib.a:boot-hiflying.o(.rodata*)
 .rodata.boot_uarts
                0x02029af4        0x8 icomlib.a(boot-hiflying.o)
 .rodata.str1.1
                0x02029afc      0x1c3 icomlib.a(boot-hiflying.o)
                0x02029cc0                . = ALIGN (0x4)
 *fill*         0x02029cbf        0x1 
                0x03000ea0                _sitxt1 = (_sitxt0a + SIZEOF (boot_in_sram))
                0x0202c000                _vma_boot_data_beg = ((ORIGIN (ram) + 0x30000) - 0x4000)

.boot_data      0x0202c000       0x10 load address 0x03000ea0
                0x0202c000                _boot_dbeg_dst = .
 icomlib.a:boot-hiflying.o(.data .data*)
 .data          0x0202c000        0x0 icomlib.a(boot-hiflying.o)
 .data.os_dummy
                0x0202c000        0x4 icomlib.a(boot-hiflying.o)
                0x0202c000                os_dummy
                0x0202c010                . = ALIGN (0x10)
 *fill*         0x0202c004        0xc 
                0x0202c010                _boot_dend_dst = .
                0x03000ea0                _boot_dbeg_src = LOADADDR (.boot_data)
                0x02028000                _vma_boot_bss_beg = (_vma_boot_data_beg - 0x4000)

.boot_bss       0x0202c010     0x13f4 load address 0x03000eb0
                0x0202c010                __boot_bss_beg__ = .
 icomlib.a:boot-hiflying.o(.bss .bss* COMMON)
 .bss           0x0202c010        0x0 icomlib.a(boot-hiflying.o)
 COMMON         0x0202c010     0x13f4 icomlib.a(boot-hiflying.o)
                0x0202c010                os_tbeg_dst
                0x0202c014                msg_fw_up_end
                0x0202c034                os_bss_end
                0x0202c038                os_bss_beg
                0x0202c03c                os_tend_dst
                0x0202c040                msg_fw_up_start
                0x0202c080                boot_au32spi_data
                0x0202c184                os_dbeg_dst
                0x0202c188                boot_au32spi_cmd
                0x0202c28c                os_dbeg_src
                0x0202c290                msg_restart
                0x0202c2b0                msg_fw_upgrade
                0x0202c2d0                os_tbeg_src
                0x0202c2d4                msg_main
                0x0202c2f4                amsg
                0x0202c3f4                boot_flash_cache_buffer
                0x0202d3f4                i_boot_cabrio_flash_cmd
                0x0202d400                os_dend_dst
                0x0202d404                __boot_bss_end__ = .
                0x0202d404                . = ALIGN (0x4)

.eh_frame
 *(.eh_frame)
                0x0202d404                . = ALIGN (0x4)
                0x0202d404                . = ALIGN (0x4)
                0x0202d404                _end = .
                0x0202d404                __end__ = .
                0x0201ad74                __heap_start__ = __bss_end__
                0x0202e380                __heap_end__ = ((ORIGIN (ram) + 0x30000) - TOTAL_STACK_SIZE)

.ARM.attributes
                0x00000000       0x2c
 *(.ARM.attributes)
 .ARM.attributes
                0x00000000       0x18 /tmp/ccmDjWLP.o
 .ARM.attributes
                0x00000018       0x28 ssv6060-main.o
 .ARM.attributes
                0x00000040       0x28 icomlib.a(etimer.o)
 .ARM.attributes
                0x00000068       0x28 icomlib.a(printf.o)
 .ARM.attributes
                0x00000090       0x28 icomlib.a(process.o)
 .ARM.attributes
                0x000000b8       0x28 icomlib.a(strformat.o)
 .ARM.attributes
                0x000000e0       0x28 icomlib.a(timer.o)
 .ARM.attributes
                0x00000108       0x28 icomlib.a(atcmd_icomm.o)
 .ARM.attributes
                0x00000130       0x28 icomlib.a(boot-hiflying.o)
 .ARM.attributes
                0x00000158       0x28 icomlib.a(clock.o)
 .ARM.attributes
                0x00000180       0x28 icomlib.a(contiki-main.o)
 .ARM.attributes
                0x000001a8       0x28 icomlib.a(debug-uart.o)
 .ARM.attributes
                0x000001d0       0x28 icomlib.a(gpio_api.o)
 .ARM.attributes
                0x000001f8       0x28 icomlib.a(drv_timer.o)
 .ARM.attributes
                0x00000220       0x28 icomlib.a(drv_uart.o)
 .ARM.attributes
                0x00000248       0x28 icomlib.a(hw_init.o)
 .ARM.attributes
                0x00000270       0x28 icomlib.a(hw_regs_api.o)
 .ARM.attributes
                0x00000298       0x28 icomlib.a(ssv_lib.o)
 .ARM.attributes
                0x000002c0       0x28 icomlib.a(ssv_lib_slow.o)
 .ARM.attributes
                0x000002e8       0x28 icomlib.a(swpwm.o)
 .ARM.attributes
                0x00000310       0x28 icomlib.a(systemconf.o)
 .ARM.attributes
                0x00000338       0x28 icomlib.a(wdog_api.o)
 .ARM.attributes
                0x00000360       0x28 icomlib.a(xmem.o)
 .ARM.attributes
                0x00000388       0x28 icomlib.a(bsp.o)
 .ARM.attributes
                0x000003b0       0x28 icomlib.a(crypthw.o)
 .ARM.attributes
                0x000003d8       0x28 icomlib.a(dbg-atcmd-api.o)
 .ARM.attributes
                0x00000400       0x28 icomlib.a(drv_mac.o)
 .ARM.attributes
                0x00000428       0x28 icomlib.a(drv_phy.o)
 .ARM.attributes
                0x00000450       0x28 icomlib.a(drv_pktbuf.o)
 .ARM.attributes
                0x00000478       0x28 icomlib.a(drv_pktbuf_slow)
 .ARM.attributes
                0x000004a0       0x28 icomlib.a(hash_alg.o)
 .ARM.attributes
                0x000004c8       0x28 icomlib.a(hmac_md5.o)
 .ARM.attributes
                0x000004f0       0x28 icomlib.a(hmac_sha1.o)
 .ARM.attributes
                0x00000518       0x28 icomlib.a(ieee80211_mgmt.)
 .ARM.attributes
                0x00000540       0x28 icomlib.a(ieee80211_rdc.o)
 .ARM.attributes
                0x00000568       0x28 icomlib.a(irq.o)
 .ARM.attributes
                0x00000590       0x28 icomlib.a(netstack.o)
 .ARM.attributes
                0x000005b8       0x28 icomlib.a(powersave.o)
 .ARM.attributes
                0x000005e0       0x28 icomlib.a(rate_control.o)
 .ARM.attributes
                0x00000608       0x28 icomlib.a(sha1.o)
 .ARM.attributes
                0x00000630       0x28 icomlib.a(soft_ap.o)
 .ARM.attributes
                0x00000658       0x28 icomlib.a(ssv6200_rx.o)
 .ARM.attributes
                0x00000680       0x28 icomlib.a(ssvradio.o)
 .ARM.attributes
                0x000006a8       0x28 icomlib.a(wpa.o)
 .ARM.attributes
                0x000006d0       0x28 icomlib.a(sys_status_api.)
 .ARM.attributes
                0x000006f8       0x28 icomlib.a(AES_decrypt.o)
 .ARM.attributes
                0x00000720       0x28 icomlib.a(arc4.o)
 .ARM.attributes
                0x00000748       0x28 icomlib.a(md5.o)
 .ARM.attributes
                0x00000770       0x28 icomlib.a(wep.o)
 .ARM.attributes
                0x00000798       0x28 icomlib.a(autostart.o)
 .ARM.attributes
                0x000007c0       0x28 icomlib.a(shell-ping.o)
 .ARM.attributes
                0x000007e8       0x28 icomlib.a(random.o)
 .ARM.attributes
                0x00000810       0x28 icomlib.a(airkiss.o)
 .ARM.attributes
                0x00000838       0x28 icomlib.a(bsp_info.o)
 .ARM.attributes
                0x00000860       0x28 icomlib.a(cfs-coffee.o)
 .ARM.attributes
                0x00000888       0x28 icomlib.a(console.o)
 .ARM.attributes
                0x000008b0       0x28 icomlib.a(drv_flash.o)
 .ARM.attributes
                0x000008d8       0x28 icomlib.a(drv_gpio.o)
 .ARM.attributes
                0x00000900       0x28 icomlib.a(drv_pmu.o)
 .ARM.attributes
                0x00000928       0x28 icomlib.a(drv_wdog.o)
 .ARM.attributes
                0x00000950       0x28 icomlib.a(fence.o)
 .ARM.attributes
                0x00000978       0x28 icomlib.a(flash_api.o)
 .ARM.attributes
                0x000009a0       0x28 icomlib.a(smartComm.o)
 .ARM.attributes
                0x000009c8       0x28 icomlib.a(smartConf.o)
 .ARM.attributes
                0x000009f0       0x28 icomlib.a(userSmart.o)
 .ARM.attributes
                0x00000a18       0x28 icomlib.a(ieee80211_mac.o)
 .ARM.attributes
                0x00000a40       0x28 icomlib.a(ieee80211_net.o)
 .ARM.attributes
                0x00000a68       0x28 icomlib.a(ssv6200_tx.o)
 .ARM.attributes
                0x00000a90       0x28 icomlib.a(drv_fence.o)
 .ARM.attributes
                0x00000ab8       0x28 icomlib.a(drv_mbox.o)
 .ARM.attributes
                0x00000ae0       0x28 icomlib.a(EAPOL.o)
 .ARM.attributes
                0x00000b08       0x28 icomapps.a(atcmd.o)
 .ARM.attributes
                0x00000b30       0x28 icomapps.a(socket_app.o)
 .ARM.attributes
                0x00000b58       0x28 icomapps.a(soft_ap_init.o)
 .ARM.attributes
                0x00000b80       0x28 icomapps.a(tcp_server_demo)
 .ARM.attributes
                0x00000ba8       0x28 icomapps.a(wifi_uart_demo.)
 .ARM.attributes
                0x00000bd0       0x28 icomapps.a(ota_api.o)
 .ARM.attributes
                0x00000bf8       0x28 icomlib.a(pwm_api.o)
 .ARM.attributes
                0x00000c20       0x28 icomlib.a(serial_api.o)
 .ARM.attributes
                0x00000c48       0x28 icomlib.a(drv_pwm.o)
 .ARM.attributes
                0x00000c70       0x28 contikilib.a(dhcp_process.o)
 .ARM.attributes
                0x00000c98       0x28 contikilib.a(dhcps.o)
 .ARM.attributes
                0x00000cc0       0x28 contikilib.a(resolv.o)
 .ARM.attributes
                0x00000ce8       0x28 contikilib.a(simple-udp.o)
 .ARM.attributes
                0x00000d10       0x28 contikilib.a(socket_driver.o)
 .ARM.attributes
                0x00000d38       0x28 contikilib.a(tcpip.o)
 .ARM.attributes
                0x00000d60       0x28 contikilib.a(uip_arp.o)
 .ARM.attributes
                0x00000d88       0x28 contikilib.a(uip.o)
 .ARM.attributes
                0x00000db0       0x28 contikilib.a(uiplib.o)
 .ARM.attributes
                0x00000dd8       0x28 contikilib.a(uip-udp-packet.)
 .ARM.attributes
                0x00000e00       0x28 contikilib.a(ntp_client.o)
 .ARM.attributes
                0x00000e28       0x28 contikilib.a(dhcpc.o)
 .ARM.attributes
                0x00000e50       0x28 accloud.a(zc_common.o)
 .ARM.attributes
                0x00000e78       0x28 accloud.a(zc_configuratio)
 .ARM.attributes
                0x00000ea0       0x28 accloud.a(zc_message_queu)
 .ARM.attributes
                0x00000ec8       0x28 accloud.a(zc_protocol_con)
 .ARM.attributes
                0x00000ef0       0x28 accloud.a(zc_sec_engine.o)
 .ARM.attributes
                0x00000f18       0x28 accloud.a(zc_timer.o)
 .ARM.attributes
                0x00000f40       0x28 accloud.a(zc_hf_adpter.o)
 .ARM.attributes
                0x00000f68       0x28 accloud.a(ac_api.o)
 .ARM.attributes
                0x00000f90       0x28 accloud.a(ac_hal.o)
 .ARM.attributes
                0x00000fb8       0x28 accloud.a(aes_cbc.o)
 .ARM.attributes
                0x00000fe0       0x28 accloud.a(aes_core.o)
 .ARM.attributes
                0x00001008       0x28 accloud.a(crc.o)
 .ARM.attributes
                0x00001030       0x28 accloud.a(bignum.o)
 .ARM.attributes
                0x00001058       0x28 accloud.a(rsa.o)
 .ARM.attributes
                0x00001080       0x28 accloud.a(zc_client_manag)
 .ARM.attributes
                0x000010a8       0x28 accloud.a(zc_cloud_event.)
 .ARM.attributes
                0x000010d0       0x28 accloud.a(zc_moudle_manag)
 .ARM.attributes
                0x000010f8       0x30 ./thirdPartyLib/libairkiss.a(airkiss.o)
 .ARM.attributes
                0x00001128       0x18 /usr/bin/../lib/gcc/arm-none-eabi/4.8.4/libgcc.a(_udivsi3.o)
 .ARM.attributes
                0x00001140       0x18 /usr/bin/../lib/gcc/arm-none-eabi/4.8.4/libgcc.a(_divsi3.o)
 .ARM.attributes
                0x00001158       0x18 /usr/bin/../lib/gcc/arm-none-eabi/4.8.4/libgcc.a(_dvmd_tls.o)
 .ARM.attributes
                0x00001170       0x18 /usr/bin/../lib/gcc/arm-none-eabi/4.8.4/libgcc.a(_aeabi_uldivmod.o)
 .ARM.attributes
                0x00001188       0x30 /usr/bin/../lib/gcc/arm-none-eabi/4.8.4/libgcc.a(bpabi.o)
 .ARM.attributes
                0x000011b8       0x30 /usr/bin/../lib/gcc/arm-none-eabi/4.8.4/libgcc.a(_divdi3.o)
 .ARM.attributes
                0x000011e8       0x30 /usr/bin/../lib/gcc/arm-none-eabi/4.8.4/libgcc.a(_udivdi3.o)
 .ARM.attributes
                0x00001218       0x18 /usr/bin/../lib/gcc/arm-none-eabi/4.8.4/libgcc.a(_clzsi2.o)
 .ARM.attributes
                0x00001230       0x30 /usr/bin/../lib/gcc/arm-none-eabi/4.8.4/../../../../arm-none-eabi/lib/libg_s.a(lib_a-atoi.o)
 .ARM.attributes
                0x00001260       0x30 /usr/bin/../lib/gcc/arm-none-eabi/4.8.4/../../../../arm-none-eabi/lib/libg_s.a(lib_a-errno.o)
 .ARM.attributes
                0x00001290       0x30 /usr/bin/../lib/gcc/arm-none-eabi/4.8.4/../../../../arm-none-eabi/lib/libg_s.a(lib_a-impure.o)
 .ARM.attributes
                0x000012c0       0x30 /usr/bin/../lib/gcc/arm-none-eabi/4.8.4/../../../../arm-none-eabi/lib/libg_s.a(lib_a-malloc.o)
 .ARM.attributes
                0x000012f0       0x30 /usr/bin/../lib/gcc/arm-none-eabi/4.8.4/../../../../arm-none-eabi/lib/libg_s.a(lib_a-memmove.o)
 .ARM.attributes
                0x00001320       0x30 /usr/bin/../lib/gcc/arm-none-eabi/4.8.4/../../../../arm-none-eabi/lib/libg_s.a(lib_a-nano-freer.o)
 .ARM.attributes
                0x00001350       0x30 /usr/bin/../lib/gcc/arm-none-eabi/4.8.4/../../../../arm-none-eabi/lib/libg_s.a(lib_a-nano-mallocr.o)
 .ARM.attributes
                0x00001380       0x30 /usr/bin/../lib/gcc/arm-none-eabi/4.8.4/../../../../arm-none-eabi/lib/libg_s.a(lib_a-rand.o)
 .ARM.attributes
                0x000013b0       0x30 /usr/bin/../lib/gcc/arm-none-eabi/4.8.4/../../../../arm-none-eabi/lib/libg_s.a(lib_a-sbrkr.o)
 .ARM.attributes
                0x000013e0       0x30 /usr/bin/../lib/gcc/arm-none-eabi/4.8.4/../../../../arm-none-eabi/lib/libg_s.a(lib_a-strcasecmp.o)
 .ARM.attributes
                0x00001410       0x30 /usr/bin/../lib/gcc/arm-none-eabi/4.8.4/../../../../arm-none-eabi/lib/libg_s.a(lib_a-strcpy.o)
 .ARM.attributes
                0x00001440       0x30 /usr/bin/../lib/gcc/arm-none-eabi/4.8.4/../../../../arm-none-eabi/lib/libg_s.a(lib_a-strncmp.o)
 .ARM.attributes
                0x00001470       0x30 /usr/bin/../lib/gcc/arm-none-eabi/4.8.4/../../../../arm-none-eabi/lib/libg_s.a(lib_a-strtol.o)
 .ARM.attributes
                0x000014a0       0x30 /usr/bin/../lib/gcc/arm-none-eabi/4.8.4/../../../../arm-none-eabi/lib/libg_s.a(lib_a-strtoul.o)
 .ARM.attributes
                0x000014d0       0x30 /usr/bin/../lib/gcc/arm-none-eabi/4.8.4/../../../../arm-none-eabi/lib/libg_s.a(lib_a-vsnprintf.o)
 .ARM.attributes
                0x00001500       0x30 /usr/bin/../lib/gcc/arm-none-eabi/4.8.4/../../../../arm-none-eabi/lib/libg_s.a(lib_a-ctype_.o)
 .ARM.attributes
                0x00001530       0x30 /usr/bin/../lib/gcc/arm-none-eabi/4.8.4/../../../../arm-none-eabi/lib/libg_s.a(lib_a-reent.o)
 .ARM.attributes
                0x00001560       0x30 /usr/bin/../lib/gcc/arm-none-eabi/4.8.4/../../../../arm-none-eabi/lib/libg_s.a(lib_a-svfprintf.o)
 .ARM.attributes
                0x00001590       0x30 /usr/bin/../lib/gcc/arm-none-eabi/4.8.4/../../../../arm-none-eabi/lib/libg_s.a(lib_a-vfprintf_i.o)
 .ARM.attributes
                0x000015c0       0x30 /usr/bin/../lib/gcc/arm-none-eabi/4.8.4/../../../../arm-none-eabi/lib/libg_s.a(lib_a-memchr-stub.o)
 .ARM.attributes
                0x000015f0       0x30 /usr/bin/../lib/gcc/arm-none-eabi/4.8.4/../../../../arm-none-eabi/lib/libg_s.a(lib_a-nano-reallocr.o)
 .ARM.attributes
                0x00001620       0x30 /usr/bin/../lib/gcc/arm-none-eabi/4.8.4/../../../../arm-none-eabi/lib/libg_s.a(lib_a-nano-msizer.o)
 *(ARM.attributes)
                0x00001650                PROVIDE (end, .)
LOAD /tmp/ccmDjWLP.o
LOAD ssv6060-main.o
LOAD icomlib.a
LOAD icomapps.a
LOAD icomlib.a
LOAD contikilib.a
LOAD accloud.a
LOAD ./thirdPartyLib/libairkiss.a
START GROUP
LOAD /usr/bin/../lib/gcc/arm-none-eabi/4.8.4/libgcc.a
LOAD /usr/bin/../lib/gcc/arm-none-eabi/4.8.4/../../../../arm-none-eabi/lib/libg_s.a
LOAD /usr/bin/../lib/gcc/arm-none-eabi/4.8.4/../../../../arm-none-eabi/lib/libc_s.a
END GROUP
START GROUP
LOAD /usr/bin/../lib/gcc/arm-none-eabi/4.8.4/libgcc.a
LOAD /usr/bin/../lib/gcc/arm-none-eabi/4.8.4/../../../../arm-none-eabi/lib/libc_s.a
LOAD /usr/bin/../lib/gcc/arm-none-eabi/4.8.4/../../../../arm-none-eabi/lib/libnosys.a
END GROUP
START GROUP
LOAD /usr/bin/../lib/gcc/arm-none-eabi/4.8.4/libgcc.a
LOAD /usr/bin/../lib/gcc/arm-none-eabi/4.8.4/../../../../arm-none-eabi/lib/libc_s.a
LOAD /usr/bin/../lib/gcc/arm-none-eabi/4.8.4/../../../../arm-none-eabi/lib/libnosys.a
END GROUP
OUTPUT(ssv6060-main.elf elf32-littlearm)

.debug_line     0x00000000    0x1385d
 .debug_line    0x00000000       0xe3 /tmp/ccmDjWLP.o
 .debug_line    0x000000e3      0x3fe ssv6060-main.o
 .debug_line    0x000004e1      0x20a icomlib.a(etimer.o)
 .debug_line    0x000006eb      0x39a icomlib.a(printf.o)
 .debug_line    0x00000a85      0x226 icomlib.a(process.o)
 .debug_line    0x00000cab      0x289 icomlib.a(strformat.o)
 .debug_line    0x00000f34       0xc9 icomlib.a(timer.o)
 .debug_line    0x00000ffd      0x7ba icomlib.a(atcmd_icomm.o)
 .debug_line    0x000017b7      0x476 icomlib.a(boot-hiflying.o)
 .debug_line    0x00001c2d      0x1e4 icomlib.a(clock.o)
 .debug_line    0x00001e11      0x2e3 icomlib.a(contiki-main.o)
 .debug_line    0x000020f4       0xb6 icomlib.a(debug-uart.o)
 .debug_line    0x000021aa       0xe7 icomlib.a(gpio_api.o)
 .debug_line    0x00002291       0x98 icomlib.a(drv_timer.o)
 .debug_line    0x00002329      0x1bd icomlib.a(drv_uart.o)
 .debug_line    0x000024e6      0x3a7 icomlib.a(hw_init.o)
 .debug_line    0x0000288d       0x8b icomlib.a(hw_regs_api.o)
 .debug_line    0x00002918      0x1dd icomlib.a(ssv_lib.o)
 .debug_line    0x00002af5      0x10f icomlib.a(ssv_lib_slow.o)
 .debug_line    0x00002c04      0x1f8 icomlib.a(swpwm.o)
 .debug_line    0x00002dfc      0x3b1 icomlib.a(systemconf.o)
 .debug_line    0x000031ad      0x197 icomlib.a(wdog_api.o)
 .debug_line    0x00003344      0x1ad icomlib.a(xmem.o)
 .debug_line    0x000034f1      0x279 icomlib.a(bsp.o)
 .debug_line    0x0000376a      0x19f icomlib.a(crypthw.o)
 .debug_line    0x00003909      0xcc4 icomlib.a(dbg-atcmd-api.o)
 .debug_line    0x000045cd      0x216 icomlib.a(drv_mac.o)
 .debug_line    0x000047e3      0xb8b icomlib.a(drv_phy.o)
 .debug_line    0x0000536e      0x1db icomlib.a(drv_pktbuf.o)
 .debug_line    0x00005549       0xeb icomlib.a(drv_pktbuf_slow)
 .debug_line    0x00005634      0x104 icomlib.a(hash_alg.o)
 .debug_line    0x00005738      0x11d icomlib.a(hmac_md5.o)
 .debug_line    0x00005855      0x16d icomlib.a(hmac_sha1.o)
 .debug_line    0x000059c2      0x9c0 icomlib.a(ieee80211_mgmt.)
 .debug_line    0x00006382      0x1f1 icomlib.a(ieee80211_rdc.o)
 .debug_line    0x00006573      0x160 icomlib.a(irq.o)
 .debug_line    0x000066d3       0x82 icomlib.a(netstack.o)
 .debug_line    0x00006755      0x31c icomlib.a(powersave.o)
 .debug_line    0x00006a71      0x1eb icomlib.a(rate_control.o)
 .debug_line    0x00006c5c      0x104 icomlib.a(sha1.o)
 .debug_line    0x00006d60      0xa09 icomlib.a(soft_ap.o)
 .debug_line    0x00007769      0x4ae icomlib.a(ssv6200_rx.o)
 .debug_line    0x00007c17      0x329 icomlib.a(ssvradio.o)
 .debug_line    0x00007f40      0x63b icomlib.a(wpa.o)
 .debug_line    0x0000857b      0x1e8 icomlib.a(sys_status_api.)
 .debug_line    0x00008763      0x371 icomlib.a(AES_decrypt.o)
 .debug_line    0x00008ad4       0xbe icomlib.a(arc4.o)
 .debug_line    0x00008b92      0x272 icomlib.a(md5.o)
 .debug_line    0x00008e04      0x407 icomlib.a(wep.o)
 .debug_line    0x0000920b       0x95 icomlib.a(autostart.o)
 .debug_line    0x000092a0      0x1bb icomlib.a(shell-ping.o)
 .debug_line    0x0000945b       0x74 icomlib.a(random.o)
 .debug_line    0x000094cf      0x2e7 icomlib.a(airkiss.o)
 .debug_line    0x000097b6      0x2c6 icomlib.a(bsp_info.o)
 .debug_line    0x00009a7c      0x53f icomlib.a(cfs-coffee.o)
 .debug_line    0x00009fbb      0x16f icomlib.a(console.o)
 .debug_line    0x0000a12a      0x207 icomlib.a(drv_flash.o)
 .debug_line    0x0000a331      0x14d icomlib.a(drv_gpio.o)
 .debug_line    0x0000a47e      0x27c icomlib.a(drv_pmu.o)
 .debug_line    0x0000a6fa       0xab icomlib.a(drv_wdog.o)
 .debug_line    0x0000a7a5       0x9c icomlib.a(fence.o)
 .debug_line    0x0000a841      0x228 icomlib.a(flash_api.o)
 .debug_line    0x0000aa69      0x449 icomlib.a(smartComm.o)
 .debug_line    0x0000aeb2      0x401 icomlib.a(smartConf.o)
 .debug_line    0x0000b2b3      0x37c icomlib.a(userSmart.o)
 .debug_line    0x0000b62f      0x41c icomlib.a(ieee80211_mac.o)
 .debug_line    0x0000ba4b      0x259 icomlib.a(ieee80211_net.o)
 .debug_line    0x0000bca4      0x266 icomlib.a(ssv6200_tx.o)
 .debug_line    0x0000bf0a       0x82 icomlib.a(drv_fence.o)
 .debug_line    0x0000bf8c       0x7a icomlib.a(drv_mbox.o)
 .debug_line    0x0000c006      0x1c1 icomlib.a(EAPOL.o)
 .debug_line    0x0000c1c7      0xba7 icomapps.a(atcmd.o)
 .debug_line    0x0000cd6e      0x3fc icomapps.a(socket_app.o)
 .debug_line    0x0000d16a      0x289 icomapps.a(soft_ap_init.o)
 .debug_line    0x0000d3f3      0x336 icomapps.a(tcp_server_demo)
 .debug_line    0x0000d729      0x284 icomapps.a(wifi_uart_demo.)
 .debug_line    0x0000d9ad      0x38b icomapps.a(ota_api.o)
 .debug_line    0x0000dd38       0x91 icomlib.a(pwm_api.o)
 .debug_line    0x0000ddc9       0xc9 icomlib.a(serial_api.o)
 .debug_line    0x0000de92       0xaf icomlib.a(drv_pwm.o)
 .debug_line    0x0000df41      0x237 contikilib.a(dhcp_process.o)
 .debug_line    0x0000e178      0x4e7 contikilib.a(dhcps.o)
 .debug_line    0x0000e65f      0x326 contikilib.a(resolv.o)
 .debug_line    0x0000e985      0x1e7 contikilib.a(simple-udp.o)
 .debug_line    0x0000eb6c      0x359 contikilib.a(socket_driver.o)
 .debug_line    0x0000eec5      0x435 contikilib.a(tcpip.o)
 .debug_line    0x0000f2fa      0x38c contikilib.a(uip_arp.o)
 .debug_line    0x0000f686      0x7cb contikilib.a(uip.o)
 .debug_line    0x0000fe51       0xfc contikilib.a(uiplib.o)
 .debug_line    0x0000ff4d      0x13b contikilib.a(uip-udp-packet.)
 .debug_line    0x00010088      0x236 contikilib.a(ntp_client.o)
 .debug_line    0x000102be      0x431 contikilib.a(dhcpc.o)
 .debug_line    0x000106ef      0x162 accloud.a(zc_common.o)
 .debug_line    0x00010851      0x216 accloud.a(zc_configuratio)
 .debug_line    0x00010a67      0x204 accloud.a(zc_message_queu)
 .debug_line    0x00010c6b      0x636 accloud.a(zc_protocol_con)
 .debug_line    0x000112a1      0x280 accloud.a(zc_sec_engine.o)
 .debug_line    0x00011521      0x137 accloud.a(zc_timer.o)
 .debug_line    0x00011658      0x4bd accloud.a(zc_hf_adpter.o)
 .debug_line    0x00011b15      0x2a3 accloud.a(ac_api.o)
 .debug_line    0x00011db8      0x23f accloud.a(ac_hal.o)
 .debug_line    0x00011ff7      0x180 accloud.a(aes_cbc.o)
 .debug_line    0x00012177      0x396 accloud.a(aes_core.o)
 .debug_line    0x0001250d       0xa0 accloud.a(crc.o)
 .debug_line    0x000125ad      0x982 accloud.a(bignum.o)
 .debug_line    0x00012f2f      0x1c8 accloud.a(rsa.o)
 .debug_line    0x000130f7      0x292 accloud.a(zc_client_manag)
 .debug_line    0x00013389      0x212 accloud.a(zc_cloud_event.)
 .debug_line    0x0001359b      0x2c2 accloud.a(zc_moudle_manag)

.debug_info     0x00000000    0x671fc
 .debug_info    0x00000000       0x59 /tmp/ccmDjWLP.o
 .debug_info    0x00000059     0x15d5 ssv6060-main.o
 .debug_info    0x0000162e      0x7b5 icomlib.a(etimer.o)
 .debug_info    0x00001de3      0xb8a icomlib.a(printf.o)
 .debug_info    0x0000296d      0x7f8 icomlib.a(process.o)
 .debug_info    0x00003165      0x9b3 icomlib.a(strformat.o)
 .debug_info    0x00003b18      0x1b3 icomlib.a(timer.o)
 .debug_info    0x00003ccb     0x39ce icomlib.a(atcmd_icomm.o)
 .debug_info    0x00007699     0x14f9 icomlib.a(boot-hiflying.o)
 .debug_info    0x00008b92      0xbd0 icomlib.a(clock.o)
 .debug_info    0x00009762      0xc25 icomlib.a(contiki-main.o)
 .debug_info    0x0000a387      0x23d icomlib.a(debug-uart.o)
 .debug_info    0x0000a5c4      0x3f2 icomlib.a(gpio_api.o)
 .debug_info    0x0000a9b6      0x257 icomlib.a(drv_timer.o)
 .debug_info    0x0000ac0d      0x574 icomlib.a(drv_uart.o)
 .debug_info    0x0000b181     0x1dc3 icomlib.a(hw_init.o)
 .debug_info    0x0000cf44      0x1ae icomlib.a(hw_regs_api.o)
 .debug_info    0x0000d0f2      0x4d1 icomlib.a(ssv_lib.o)
 .debug_info    0x0000d5c3      0x360 icomlib.a(ssv_lib_slow.o)
 .debug_info    0x0000d923      0x497 icomlib.a(swpwm.o)
 .debug_info    0x0000ddba     0x1852 icomlib.a(systemconf.o)
 .debug_info    0x0000f60c      0x581 icomlib.a(wdog_api.o)
 .debug_info    0x0000fb8d      0x6bf icomlib.a(xmem.o)
 .debug_info    0x0001024c      0x57d icomlib.a(bsp.o)
 .debug_info    0x000107c9      0x8c1 icomlib.a(crypthw.o)
 .debug_info    0x0001108a     0x4aca icomlib.a(dbg-atcmd-api.o)
 .debug_info    0x00015b54      0xe8c icomlib.a(drv_mac.o)
 .debug_info    0x000169e0     0x22fb icomlib.a(drv_phy.o)
 .debug_info    0x00018cdb      0x6ca icomlib.a(drv_pktbuf.o)
 .debug_info    0x000193a5      0x5db icomlib.a(drv_pktbuf_slow)
 .debug_info    0x00019980      0x806 icomlib.a(hash_alg.o)
 .debug_info    0x0001a186      0x46e icomlib.a(hmac_md5.o)
 .debug_info    0x0001a5f4      0x48e icomlib.a(hmac_sha1.o)
 .debug_info    0x0001aa82     0x4bb4 icomlib.a(ieee80211_mgmt.)
 .debug_info    0x0001f636      0x6f5 icomlib.a(ieee80211_rdc.o)
 .debug_info    0x0001fd2b      0x3f0 icomlib.a(irq.o)
 .debug_info    0x0002011b      0x284 icomlib.a(netstack.o)
 .debug_info    0x0002039f     0x1204 icomlib.a(powersave.o)
 .debug_info    0x000215a3      0xbdb icomlib.a(rate_control.o)
 .debug_info    0x0002217e      0x23d icomlib.a(sha1.o)
 .debug_info    0x000223bb     0x44c9 icomlib.a(soft_ap.o)
 .debug_info    0x00026884     0x1958 icomlib.a(ssv6200_rx.o)
 .debug_info    0x000281dc     0x11fa icomlib.a(ssvradio.o)
 .debug_info    0x000293d6     0x2ddc icomlib.a(wpa.o)
 .debug_info    0x0002c1b2      0xb8b icomlib.a(sys_status_api.)
 .debug_info    0x0002cd3d      0xc3f icomlib.a(AES_decrypt.o)
 .debug_info    0x0002d97c      0x313 icomlib.a(arc4.o)
 .debug_info    0x0002dc8f      0x4ee icomlib.a(md5.o)
 .debug_info    0x0002e17d     0x1408 icomlib.a(wep.o)
 .debug_info    0x0002f585      0x26d icomlib.a(autostart.o)
 .debug_info    0x0002f7f2      0x753 icomlib.a(shell-ping.o)
 .debug_info    0x0002ff45       0xe7 icomlib.a(random.o)
 .debug_info    0x0003002c     0x12c8 icomlib.a(airkiss.o)
 .debug_info    0x000312f4      0xf54 icomlib.a(bsp_info.o)
 .debug_info    0x00032248     0x1817 icomlib.a(cfs-coffee.o)
 .debug_info    0x00033a5f      0x51e icomlib.a(console.o)
 .debug_info    0x00033f7d      0x752 icomlib.a(drv_flash.o)
 .debug_info    0x000346cf      0x48f icomlib.a(drv_gpio.o)
 .debug_info    0x00034b5e      0xd8a icomlib.a(drv_pmu.o)
 .debug_info    0x000358e8       0xd7 icomlib.a(drv_wdog.o)
 .debug_info    0x000359bf      0x188 icomlib.a(fence.o)
 .debug_info    0x00035b47      0x83a icomlib.a(flash_api.o)
 .debug_info    0x00036381     0x1779 icomlib.a(smartComm.o)
 .debug_info    0x00037afa     0x1e6f icomlib.a(smartConf.o)
 .debug_info    0x00039969     0x1202 icomlib.a(userSmart.o)
 .debug_info    0x0003ab6b     0x1cce icomlib.a(ieee80211_mac.o)
 .debug_info    0x0003c839     0x1249 icomlib.a(ieee80211_net.o)
 .debug_info    0x0003da82     0x12d6 icomlib.a(ssv6200_tx.o)
 .debug_info    0x0003ed58      0x142 icomlib.a(drv_fence.o)
 .debug_info    0x0003ee9a      0x10d icomlib.a(drv_mbox.o)
 .debug_info    0x0003efa7     0x117c icomlib.a(EAPOL.o)
 .debug_info    0x00040123     0x5d7a icomapps.a(atcmd.o)
 .debug_info    0x00045e9d     0x1571 icomapps.a(socket_app.o)
 .debug_info    0x0004740e      0xfbd icomapps.a(soft_ap_init.o)
 .debug_info    0x000483cb      0xe0e icomapps.a(tcp_server_demo)
 .debug_info    0x000491d9      0xada icomapps.a(wifi_uart_demo.)
 .debug_info    0x00049cb3     0x10ff icomapps.a(ota_api.o)
 .debug_info    0x0004adb2      0x13d icomlib.a(pwm_api.o)
 .debug_info    0x0004aeef      0x345 icomlib.a(serial_api.o)
 .debug_info    0x0004b234      0x102 icomlib.a(drv_pwm.o)
 .debug_info    0x0004b336      0xd9d contikilib.a(dhcp_process.o)
 .debug_info    0x0004c0d3     0x1dc1 contikilib.a(dhcps.o)
 .debug_info    0x0004de94      0xe0d contikilib.a(resolv.o)
 .debug_info    0x0004eca1      0x8fa contikilib.a(simple-udp.o)
 .debug_info    0x0004f59b      0xe7b contikilib.a(socket_driver.o)
 .debug_info    0x00050416     0x14db contikilib.a(tcpip.o)
 .debug_info    0x000518f1      0xce0 contikilib.a(uip_arp.o)
 .debug_info    0x000525d1     0x1642 contikilib.a(uip.o)
 .debug_info    0x00053c13      0x202 contikilib.a(uiplib.o)
 .debug_info    0x00053e15      0x577 contikilib.a(uip-udp-packet.)
 .debug_info    0x0005438c      0xaa8 contikilib.a(ntp_client.o)
 .debug_info    0x00054e34     0x1cd6 contikilib.a(dhcpc.o)
 .debug_info    0x00056b0a      0x8ae accloud.a(zc_common.o)
 .debug_info    0x000573b8      0xe8e accloud.a(zc_configuratio)
 .debug_info    0x00058246      0xaa7 accloud.a(zc_message_queu)
 .debug_info    0x00058ced     0x2507 accloud.a(zc_protocol_con)
 .debug_info    0x0005b1f4     0x1189 accloud.a(zc_sec_engine.o)
 .debug_info    0x0005c37d      0x81b accloud.a(zc_timer.o)
 .debug_info    0x0005cb98     0x19b7 accloud.a(zc_hf_adpter.o)
 .debug_info    0x0005e54f      0xc46 accloud.a(ac_api.o)
 .debug_info    0x0005f195      0xb1d accloud.a(ac_hal.o)
 .debug_info    0x0005fcb2      0x5ea accloud.a(aes_cbc.o)
 .debug_info    0x0006029c      0x4ff accloud.a(aes_core.o)
 .debug_info    0x0006079b      0x1f1 accloud.a(crc.o)
 .debug_info    0x0006098c     0x3101 accloud.a(bignum.o)
 .debug_info    0x00063a8d      0xa67 accloud.a(rsa.o)
 .debug_info    0x000644f4      0xe81 accloud.a(zc_client_manag)
 .debug_info    0x00065375      0xc74 accloud.a(zc_cloud_event.)
 .debug_info    0x00065fe9     0x1213 accloud.a(zc_moudle_manag)

.debug_abbrev   0x00000000    0x123af
 .debug_abbrev  0x00000000       0x12 /tmp/ccmDjWLP.o
 .debug_abbrev  0x00000012      0x424 ssv6060-main.o
 .debug_abbrev  0x00000436      0x3c0 icomlib.a(etimer.o)
 .debug_abbrev  0x000007f6      0x38a icomlib.a(printf.o)
 .debug_abbrev  0x00000b80      0x3f6 icomlib.a(process.o)
 .debug_abbrev  0x00000f76      0x2b0 icomlib.a(strformat.o)
 .debug_abbrev  0x00001226       0xee icomlib.a(timer.o)
 .debug_abbrev  0x00001314      0x493 icomlib.a(atcmd_icomm.o)
 .debug_abbrev  0x000017a7      0x3da icomlib.a(boot-hiflying.o)
 .debug_abbrev  0x00001b81      0x2ac icomlib.a(clock.o)
 .debug_abbrev  0x00001e2d      0x315 icomlib.a(contiki-main.o)
 .debug_abbrev  0x00002142      0x150 icomlib.a(debug-uart.o)
 .debug_abbrev  0x00002292      0x18d icomlib.a(gpio_api.o)
 .debug_abbrev  0x0000241f      0x133 icomlib.a(drv_timer.o)
 .debug_abbrev  0x00002552      0x1e9 icomlib.a(drv_uart.o)
 .debug_abbrev  0x0000273b      0x4d7 icomlib.a(hw_init.o)
 .debug_abbrev  0x00002c12       0xeb icomlib.a(hw_regs_api.o)
 .debug_abbrev  0x00002cfd      0x171 icomlib.a(ssv_lib.o)
 .debug_abbrev  0x00002e6e      0x166 icomlib.a(ssv_lib_slow.o)
 .debug_abbrev  0x00002fd4      0x1b7 icomlib.a(swpwm.o)
 .debug_abbrev  0x0000318b      0x3d2 icomlib.a(systemconf.o)
 .debug_abbrev  0x0000355d      0x2a2 icomlib.a(wdog_api.o)
 .debug_abbrev  0x000037ff      0x2d1 icomlib.a(xmem.o)
 .debug_abbrev  0x00003ad0      0x227 icomlib.a(bsp.o)
 .debug_abbrev  0x00003cf7      0x229 icomlib.a(crypthw.o)
 .debug_abbrev  0x00003f20      0x5db icomlib.a(dbg-atcmd-api.o)
 .debug_abbrev  0x000044fb       0xb9 icomlib.a(drv_mac.o)
 .debug_abbrev  0x000045b4      0x30b icomlib.a(drv_phy.o)
 .debug_abbrev  0x000048bf      0x27d icomlib.a(drv_pktbuf.o)
 .debug_abbrev  0x00004b3c      0x111 icomlib.a(drv_pktbuf_slow)
 .debug_abbrev  0x00004c4d      0x16d icomlib.a(hash_alg.o)
 .debug_abbrev  0x00004dba      0x165 icomlib.a(hmac_md5.o)
 .debug_abbrev  0x00004f1f      0x154 icomlib.a(hmac_sha1.o)
 .debug_abbrev  0x00005073      0x5cc icomlib.a(ieee80211_mgmt.)
 .debug_abbrev  0x0000563f      0x1e1 icomlib.a(ieee80211_rdc.o)
 .debug_abbrev  0x00005820      0x1aa icomlib.a(irq.o)
 .debug_abbrev  0x000059ca       0xd8 icomlib.a(netstack.o)
 .debug_abbrev  0x00005aa2      0x3c3 icomlib.a(powersave.o)
 .debug_abbrev  0x00005e65      0x231 icomlib.a(rate_control.o)
 .debug_abbrev  0x00006096      0x112 icomlib.a(sha1.o)
 .debug_abbrev  0x000061a8      0x5d8 icomlib.a(soft_ap.o)
 .debug_abbrev  0x00006780      0x494 icomlib.a(ssv6200_rx.o)
 .debug_abbrev  0x00006c14      0x334 icomlib.a(ssvradio.o)
 .debug_abbrev  0x00006f48      0x4dd icomlib.a(wpa.o)
 .debug_abbrev  0x00007425      0x294 icomlib.a(sys_status_api.)
 .debug_abbrev  0x000076b9      0x26d icomlib.a(AES_decrypt.o)
 .debug_abbrev  0x00007926      0x183 icomlib.a(arc4.o)
 .debug_abbrev  0x00007aa9      0x1f2 icomlib.a(md5.o)
 .debug_abbrev  0x00007c9b      0x393 icomlib.a(wep.o)
 .debug_abbrev  0x0000802e      0x170 icomlib.a(autostart.o)
 .debug_abbrev  0x0000819e      0x2f2 icomlib.a(shell-ping.o)
 .debug_abbrev  0x00008490       0xb5 icomlib.a(random.o)
 .debug_abbrev  0x00008545      0x347 icomlib.a(airkiss.o)
 .debug_abbrev  0x0000888c      0x2aa icomlib.a(bsp_info.o)
 .debug_abbrev  0x00008b36      0x41c icomlib.a(cfs-coffee.o)
 .debug_abbrev  0x00008f52      0x241 icomlib.a(console.o)
 .debug_abbrev  0x00009193      0x2e8 icomlib.a(drv_flash.o)
 .debug_abbrev  0x0000947b      0x153 icomlib.a(drv_gpio.o)
 .debug_abbrev  0x000095ce      0x378 icomlib.a(drv_pmu.o)
 .debug_abbrev  0x00009946       0x76 icomlib.a(drv_wdog.o)
 .debug_abbrev  0x000099bc      0x122 icomlib.a(fence.o)
 .debug_abbrev  0x00009ade      0x294 icomlib.a(flash_api.o)
 .debug_abbrev  0x00009d72      0x4a4 icomlib.a(smartComm.o)
 .debug_abbrev  0x0000a216      0x3f9 icomlib.a(smartConf.o)
 .debug_abbrev  0x0000a60f      0x31d icomlib.a(userSmart.o)
 .debug_abbrev  0x0000a92c      0x59f icomlib.a(ieee80211_mac.o)
 .debug_abbrev  0x0000aecb      0x375 icomlib.a(ieee80211_net.o)
 .debug_abbrev  0x0000b240      0x328 icomlib.a(ssv6200_tx.o)
 .debug_abbrev  0x0000b568       0xf4 icomlib.a(drv_fence.o)
 .debug_abbrev  0x0000b65c       0x98 icomlib.a(drv_mbox.o)
 .debug_abbrev  0x0000b6f4      0x296 icomlib.a(EAPOL.o)
 .debug_abbrev  0x0000b98a      0x54f icomapps.a(atcmd.o)
 .debug_abbrev  0x0000bed9      0x36a icomapps.a(socket_app.o)
 .debug_abbrev  0x0000c243      0x2f4 icomapps.a(soft_ap_init.o)
 .debug_abbrev  0x0000c537      0x2c4 icomapps.a(tcp_server_demo)
 .debug_abbrev  0x0000c7fb      0x2b0 icomapps.a(wifi_uart_demo.)
 .debug_abbrev  0x0000caab      0x3b3 icomapps.a(ota_api.o)
 .debug_abbrev  0x0000ce5e       0xed icomlib.a(pwm_api.o)
 .debug_abbrev  0x0000cf4b      0x1e8 icomlib.a(serial_api.o)
 .debug_abbrev  0x0000d133       0xa8 icomlib.a(drv_pwm.o)
 .debug_abbrev  0x0000d1db      0x2d2 contikilib.a(dhcp_process.o)
 .debug_abbrev  0x0000d4ad      0x4c6 contikilib.a(dhcps.o)
 .debug_abbrev  0x0000d973      0x3f5 contikilib.a(resolv.o)
 .debug_abbrev  0x0000dd68      0x290 contikilib.a(simple-udp.o)
 .debug_abbrev  0x0000dff8      0x35e contikilib.a(socket_driver.o)
 .debug_abbrev  0x0000e356      0x46f contikilib.a(tcpip.o)
 .debug_abbrev  0x0000e7c5      0x3b0 contikilib.a(uip_arp.o)
 .debug_abbrev  0x0000eb75      0x405 contikilib.a(uip.o)
 .debug_abbrev  0x0000ef7a      0x123 contikilib.a(uiplib.o)
 .debug_abbrev  0x0000f09d      0x257 contikilib.a(uip-udp-packet.)
 .debug_abbrev  0x0000f2f4      0x277 contikilib.a(ntp_client.o)
 .debug_abbrev  0x0000f56b      0x52d contikilib.a(dhcpc.o)
 .debug_abbrev  0x0000fa98      0x1aa accloud.a(zc_common.o)
 .debug_abbrev  0x0000fc42      0x1fe accloud.a(zc_configuratio)
 .debug_abbrev  0x0000fe40      0x1f4 accloud.a(zc_message_queu)
 .debug_abbrev  0x00010034      0x341 accloud.a(zc_protocol_con)
 .debug_abbrev  0x00010375      0x2a9 accloud.a(zc_sec_engine.o)
 .debug_abbrev  0x0001061e      0x183 accloud.a(zc_timer.o)
 .debug_abbrev  0x000107a1      0x466 accloud.a(zc_hf_adpter.o)
 .debug_abbrev  0x00010c07      0x2e2 accloud.a(ac_api.o)
 .debug_abbrev  0x00010ee9      0x309 accloud.a(ac_hal.o)
 .debug_abbrev  0x000111f2      0x17b accloud.a(aes_cbc.o)
 .debug_abbrev  0x0001136d      0x149 accloud.a(aes_core.o)
 .debug_abbrev  0x000114b6       0xca accloud.a(crc.o)
 .debug_abbrev  0x00011580      0x3dc accloud.a(bignum.o)
 .debug_abbrev  0x0001195c      0x2da accloud.a(rsa.o)
 .debug_abbrev  0x00011c36      0x2e3 accloud.a(zc_client_manag)
 .debug_abbrev  0x00011f19      0x1e8 accloud.a(zc_cloud_event.)
 .debug_abbrev  0x00012101      0x2ae accloud.a(zc_moudle_manag)

.debug_aranges  0x00000000     0x31b0
 .debug_aranges
                0x00000000       0x30 /tmp/ccmDjWLP.o
 .debug_aranges
                0x00000030       0x80 ssv6060-main.o
 .debug_aranges
                0x000000b0       0x90 icomlib.a(etimer.o)
 .debug_aranges
                0x00000140       0x98 icomlib.a(printf.o)
 .debug_aranges
                0x000001d8       0x98 icomlib.a(process.o)
 .debug_aranges
                0x00000270       0x30 icomlib.a(strformat.o)
 .debug_aranges
                0x000002a0       0x40 icomlib.a(timer.o)
 .debug_aranges
                0x000002e0      0x148 icomlib.a(atcmd_icomm.o)
 .debug_aranges
                0x00000428       0xe0 icomlib.a(boot-hiflying.o)
 .debug_aranges
                0x00000508       0x50 icomlib.a(clock.o)
 .debug_aranges
                0x00000558       0x50 icomlib.a(contiki-main.o)
 .debug_aranges
                0x000005a8       0x30 icomlib.a(debug-uart.o)
 .debug_aranges
                0x000005d8       0x40 icomlib.a(gpio_api.o)
 .debug_aranges
                0x00000618       0x30 icomlib.a(drv_timer.o)
 .debug_aranges
                0x00000648       0xa8 icomlib.a(drv_uart.o)
 .debug_aranges
                0x000006f0       0x68 icomlib.a(hw_init.o)
 .debug_aranges
                0x00000758       0x30 icomlib.a(hw_regs_api.o)
 .debug_aranges
                0x00000788       0x68 icomlib.a(ssv_lib.o)
 .debug_aranges
                0x000007f0       0x50 icomlib.a(ssv_lib_slow.o)
 .debug_aranges
                0x00000840       0x48 icomlib.a(swpwm.o)
 .debug_aranges
                0x00000888       0x88 icomlib.a(systemconf.o)
 .debug_aranges
                0x00000910       0x50 icomlib.a(wdog_api.o)
 .debug_aranges
                0x00000960       0x58 icomlib.a(xmem.o)
 .debug_aranges
                0x000009b8       0x50 icomlib.a(bsp.o)
 .debug_aranges
                0x00000a08       0x58 icomlib.a(crypthw.o)
 .debug_aranges
                0x00000a60      0x198 icomlib.a(dbg-atcmd-api.o)
 .debug_aranges
                0x00000bf8       0xf8 icomlib.a(drv_mac.o)
 .debug_aranges
                0x00000cf0      0x280 icomlib.a(drv_phy.o)
 .debug_aranges
                0x00000f70       0x68 icomlib.a(drv_pktbuf.o)
 .debug_aranges
                0x00000fd8       0x20 icomlib.a(drv_pktbuf_slow)
 .debug_aranges
                0x00000ff8       0x40 icomlib.a(hash_alg.o)
 .debug_aranges
                0x00001038       0x28 icomlib.a(hmac_md5.o)
 .debug_aranges
                0x00001060       0x28 icomlib.a(hmac_sha1.o)
 .debug_aranges
                0x00001088      0x1c0 icomlib.a(ieee80211_mgmt.)
 .debug_aranges
                0x00001248       0x50 icomlib.a(ieee80211_rdc.o)
 .debug_aranges
                0x00001298       0x60 icomlib.a(irq.o)
 .debug_aranges
                0x000012f8       0x20 icomlib.a(netstack.o)
 .debug_aranges
                0x00001318       0x70 icomlib.a(powersave.o)
 .debug_aranges
                0x00001388       0x40 icomlib.a(rate_control.o)
 .debug_aranges
                0x000013c8       0x38 icomlib.a(sha1.o)
 .debug_aranges
                0x00001400      0x1b0 icomlib.a(soft_ap.o)
 .debug_aranges
                0x000015b0       0x98 icomlib.a(ssv6200_rx.o)
 .debug_aranges
                0x00001648       0x78 icomlib.a(ssvradio.o)
 .debug_aranges
                0x000016c0       0xd8 icomlib.a(wpa.o)
 .debug_aranges
                0x00001798       0x50 icomlib.a(sys_status_api.)
 .debug_aranges
                0x000017e8       0x68 icomlib.a(AES_decrypt.o)
 .debug_aranges
                0x00001850       0x30 icomlib.a(arc4.o)
 .debug_aranges
                0x00001880       0x40 icomlib.a(md5.o)
 .debug_aranges
                0x000018c0       0xb8 icomlib.a(wep.o)
 .debug_aranges
                0x00001978       0x28 icomlib.a(autostart.o)
 .debug_aranges
                0x000019a0       0x28 icomlib.a(shell-ping.o)
 .debug_aranges
                0x000019c8       0x28 icomlib.a(random.o)
 .debug_aranges
                0x000019f0       0x68 icomlib.a(airkiss.o)
 .debug_aranges
                0x00001a58       0x40 icomlib.a(bsp_info.o)
 .debug_aranges
                0x00001a98       0xe0 icomlib.a(cfs-coffee.o)
 .debug_aranges
                0x00001b78       0x30 icomlib.a(console.o)
 .debug_aranges
                0x00001ba8       0x78 icomlib.a(drv_flash.o)
 .debug_aranges
                0x00001c20       0x50 icomlib.a(drv_gpio.o)
 .debug_aranges
                0x00001c70       0x70 icomlib.a(drv_pmu.o)
 .debug_aranges
                0x00001ce0       0x40 icomlib.a(drv_wdog.o)
 .debug_aranges
                0x00001d20       0x28 icomlib.a(fence.o)
 .debug_aranges
                0x00001d48       0x58 icomlib.a(flash_api.o)
 .debug_aranges
                0x00001da0       0xb8 icomlib.a(smartComm.o)
 .debug_aranges
                0x00001e58       0x48 icomlib.a(smartConf.o)
 .debug_aranges
                0x00001ea0       0xa0 icomlib.a(userSmart.o)
 .debug_aranges
                0x00001f40       0x88 icomlib.a(ieee80211_mac.o)
 .debug_aranges
                0x00001fc8       0x40 icomlib.a(ieee80211_net.o)
 .debug_aranges
                0x00002008       0x38 icomlib.a(ssv6200_tx.o)
 .debug_aranges
                0x00002040       0x28 icomlib.a(drv_fence.o)
 .debug_aranges
                0x00002068       0x28 icomlib.a(drv_mbox.o)
 .debug_aranges
                0x00002090       0x30 icomlib.a(EAPOL.o)
 .debug_aranges
                0x000020c0      0x1e8 icomapps.a(atcmd.o)
 .debug_aranges
                0x000022a8       0x90 icomapps.a(socket_app.o)
 .debug_aranges
                0x00002338       0x40 icomapps.a(soft_ap_init.o)
 .debug_aranges
                0x00002378       0x58 icomapps.a(tcp_server_demo)
 .debug_aranges
                0x000023d0       0x38 icomapps.a(wifi_uart_demo.)
 .debug_aranges
                0x00002408       0x68 icomapps.a(ota_api.o)
 .debug_aranges
                0x00002470       0x28 icomlib.a(pwm_api.o)
 .debug_aranges
                0x00002498       0x40 icomlib.a(serial_api.o)
 .debug_aranges
                0x000024d8       0x40 icomlib.a(drv_pwm.o)
 .debug_aranges
                0x00002518       0x40 contikilib.a(dhcp_process.o)
 .debug_aranges
                0x00002558       0x80 contikilib.a(dhcps.o)
 .debug_aranges
                0x000025d8       0x50 contikilib.a(resolv.o)
 .debug_aranges
                0x00002628       0x40 contikilib.a(simple-udp.o)
 .debug_aranges
                0x00002668       0x98 contikilib.a(socket_driver.o)
 .debug_aranges
                0x00002700       0xb8 contikilib.a(tcpip.o)
 .debug_aranges
                0x000027b8       0x88 contikilib.a(uip_arp.o)
 .debug_aranges
                0x00002840       0xf8 contikilib.a(uip.o)
 .debug_aranges
                0x00002938       0x20 contikilib.a(uiplib.o)
 .debug_aranges
                0x00002958       0x28 contikilib.a(uip-udp-packet.)
 .debug_aranges
                0x00002980       0x30 contikilib.a(ntp_client.o)
 .debug_aranges
                0x000029b0       0x70 contikilib.a(dhcpc.o)
 .debug_aranges
                0x00002a20       0x30 accloud.a(zc_common.o)
 .debug_aranges
                0x00002a50       0x68 accloud.a(zc_configuratio)
 .debug_aranges
                0x00002ab8       0x50 accloud.a(zc_message_queu)
 .debug_aranges
                0x00002b08      0x130 accloud.a(zc_protocol_con)
 .debug_aranges
                0x00002c38       0x60 accloud.a(zc_sec_engine.o)
 .debug_aranges
                0x00002c98       0x48 accloud.a(zc_timer.o)
 .debug_aranges
                0x00002ce0       0xc8 accloud.a(zc_hf_adpter.o)
 .debug_aranges
                0x00002da8       0x78 accloud.a(ac_api.o)
 .debug_aranges
                0x00002e20       0x70 accloud.a(ac_hal.o)
 .debug_aranges
                0x00002e90       0x30 accloud.a(aes_cbc.o)
 .debug_aranges
                0x00002ec0       0x38 accloud.a(aes_core.o)
 .debug_aranges
                0x00002ef8       0x38 accloud.a(crc.o)
 .debug_aranges
                0x00002f30      0x148 accloud.a(bignum.o)
 .debug_aranges
                0x00003078       0x48 accloud.a(rsa.o)
 .debug_aranges
                0x000030c0       0x68 accloud.a(zc_client_manag)
 .debug_aranges
                0x00003128       0x48 accloud.a(zc_cloud_event.)
 .debug_aranges
                0x00003170       0x40 accloud.a(zc_moudle_manag)

.debug_ranges   0x00000000     0x3710
 .debug_ranges  0x00000000       0x28 /tmp/ccmDjWLP.o
 .debug_ranges  0x00000028       0xd8 ssv6060-main.o
 .debug_ranges  0x00000100       0xc8 icomlib.a(etimer.o)
 .debug_ranges  0x000001c8       0xa0 icomlib.a(printf.o)
 .debug_ranges  0x00000268       0x88 icomlib.a(process.o)
 .debug_ranges  0x000002f0       0x60 icomlib.a(strformat.o)
 .debug_ranges  0x00000350       0x30 icomlib.a(timer.o)
 .debug_ranges  0x00000380      0x150 icomlib.a(atcmd_icomm.o)
 .debug_ranges  0x000004d0       0xe8 icomlib.a(boot-hiflying.o)
 .debug_ranges  0x000005b8       0x40 icomlib.a(clock.o)
 .debug_ranges  0x000005f8       0x40 icomlib.a(contiki-main.o)
 .debug_ranges  0x00000638       0x20 icomlib.a(debug-uart.o)
 .debug_ranges  0x00000658       0x30 icomlib.a(gpio_api.o)
 .debug_ranges  0x00000688       0x20 icomlib.a(drv_timer.o)
 .debug_ranges  0x000006a8       0x98 icomlib.a(drv_uart.o)
 .debug_ranges  0x00000740       0x70 icomlib.a(hw_init.o)
 .debug_ranges  0x000007b0       0x20 icomlib.a(hw_regs_api.o)
 .debug_ranges  0x000007d0       0x58 icomlib.a(ssv_lib.o)
 .debug_ranges  0x00000828       0x40 icomlib.a(ssv_lib_slow.o)
 .debug_ranges  0x00000868       0x38 icomlib.a(swpwm.o)
 .debug_ranges  0x000008a0       0x78 icomlib.a(systemconf.o)
 .debug_ranges  0x00000918       0x58 icomlib.a(wdog_api.o)
 .debug_ranges  0x00000970       0x48 icomlib.a(xmem.o)
 .debug_ranges  0x000009b8       0x40 icomlib.a(bsp.o)
 .debug_ranges  0x000009f8       0x48 icomlib.a(crypthw.o)
 .debug_ranges  0x00000a40      0x250 icomlib.a(dbg-atcmd-api.o)
 .debug_ranges  0x00000c90       0xe8 icomlib.a(drv_mac.o)
 .debug_ranges  0x00000d78      0x270 icomlib.a(drv_phy.o)
 .debug_ranges  0x00000fe8       0x58 icomlib.a(drv_pktbuf.o)
 .debug_ranges  0x00001040       0x10 icomlib.a(drv_pktbuf_slow)
 .debug_ranges  0x00001050       0x30 icomlib.a(hash_alg.o)
 .debug_ranges  0x00001080       0x18 icomlib.a(hmac_md5.o)
 .debug_ranges  0x00001098       0x18 icomlib.a(hmac_sha1.o)
 .debug_ranges  0x000010b0      0x1f8 icomlib.a(ieee80211_mgmt.)
 .debug_ranges  0x000012a8       0x40 icomlib.a(ieee80211_rdc.o)
 .debug_ranges  0x000012e8       0x50 icomlib.a(irq.o)
 .debug_ranges  0x00001338       0x10 icomlib.a(netstack.o)
 .debug_ranges  0x00001348       0x90 icomlib.a(powersave.o)
 .debug_ranges  0x000013d8       0x30 icomlib.a(rate_control.o)
 .debug_ranges  0x00001408       0x28 icomlib.a(sha1.o)
 .debug_ranges  0x00001430      0x1e8 icomlib.a(soft_ap.o)
 .debug_ranges  0x00001618       0xb8 icomlib.a(ssv6200_rx.o)
 .debug_ranges  0x000016d0       0x80 icomlib.a(ssvradio.o)
 .debug_ranges  0x00001750       0xf8 icomlib.a(wpa.o)
 .debug_ranges  0x00001848       0x40 icomlib.a(sys_status_api.)
 .debug_ranges  0x00001888       0x58 icomlib.a(AES_decrypt.o)
 .debug_ranges  0x000018e0       0x50 icomlib.a(arc4.o)
 .debug_ranges  0x00001930       0x30 icomlib.a(md5.o)
 .debug_ranges  0x00001960       0xa8 icomlib.a(wep.o)
 .debug_ranges  0x00001a08       0x18 icomlib.a(autostart.o)
 .debug_ranges  0x00001a20       0x30 icomlib.a(shell-ping.o)
 .debug_ranges  0x00001a50       0x18 icomlib.a(random.o)
 .debug_ranges  0x00001a68       0x70 icomlib.a(airkiss.o)
 .debug_ranges  0x00001ad8       0x30 icomlib.a(bsp_info.o)
 .debug_ranges  0x00001b08      0x100 icomlib.a(cfs-coffee.o)
 .debug_ranges  0x00001c08       0x20 icomlib.a(console.o)
 .debug_ranges  0x00001c28       0x68 icomlib.a(drv_flash.o)
 .debug_ranges  0x00001c90       0x40 icomlib.a(drv_gpio.o)
 .debug_ranges  0x00001cd0       0x60 icomlib.a(drv_pmu.o)
 .debug_ranges  0x00001d30       0x30 icomlib.a(drv_wdog.o)
 .debug_ranges  0x00001d60       0x18 icomlib.a(fence.o)
 .debug_ranges  0x00001d78       0x48 icomlib.a(flash_api.o)
 .debug_ranges  0x00001dc0      0x128 icomlib.a(smartComm.o)
 .debug_ranges  0x00001ee8      0x150 icomlib.a(smartConf.o)
 .debug_ranges  0x00002038       0x90 icomlib.a(userSmart.o)
 .debug_ranges  0x000020c8       0xa0 icomlib.a(ieee80211_mac.o)
 .debug_ranges  0x00002168       0x30 icomlib.a(ieee80211_net.o)
 .debug_ranges  0x00002198       0x28 icomlib.a(ssv6200_tx.o)
 .debug_ranges  0x000021c0       0x18 icomlib.a(drv_fence.o)
 .debug_ranges  0x000021d8       0x18 icomlib.a(drv_mbox.o)
 .debug_ranges  0x000021f0       0x20 icomlib.a(EAPOL.o)
 .debug_ranges  0x00002210      0x260 icomapps.a(atcmd.o)
 .debug_ranges  0x00002470      0x118 icomapps.a(socket_app.o)
 .debug_ranges  0x00002588       0x30 icomapps.a(soft_ap_init.o)
 .debug_ranges  0x000025b8       0xa8 icomapps.a(tcp_server_demo)
 .debug_ranges  0x00002660       0x70 icomapps.a(wifi_uart_demo.)
 .debug_ranges  0x000026d0       0xa0 icomapps.a(ota_api.o)
 .debug_ranges  0x00002770       0x18 icomlib.a(pwm_api.o)
 .debug_ranges  0x00002788       0x30 icomlib.a(serial_api.o)
 .debug_ranges  0x000027b8       0x30 icomlib.a(drv_pwm.o)
 .debug_ranges  0x000027e8       0x48 contikilib.a(dhcp_process.o)
 .debug_ranges  0x00002830      0x210 contikilib.a(dhcps.o)
 .debug_ranges  0x00002a40       0xa0 contikilib.a(resolv.o)
 .debug_ranges  0x00002ae0       0x90 contikilib.a(simple-udp.o)
 .debug_ranges  0x00002b70       0xb8 contikilib.a(socket_driver.o)
 .debug_ranges  0x00002c28      0x100 contikilib.a(tcpip.o)
 .debug_ranges  0x00002d28       0xa8 contikilib.a(uip_arp.o)
 .debug_ranges  0x00002dd0       0xe8 contikilib.a(uip.o)
 .debug_ranges  0x00002eb8       0x10 contikilib.a(uiplib.o)
 .debug_ranges  0x00002ec8       0x18 contikilib.a(uip-udp-packet.)
 .debug_ranges  0x00002ee0       0x50 contikilib.a(ntp_client.o)
 .debug_ranges  0x00002f30      0x130 contikilib.a(dhcpc.o)
 .debug_ranges  0x00003060       0x20 accloud.a(zc_common.o)
 .debug_ranges  0x00003080       0x58 accloud.a(zc_configuratio)
 .debug_ranges  0x000030d8       0x40 accloud.a(zc_message_queu)
 .debug_ranges  0x00003118      0x120 accloud.a(zc_protocol_con)
 .debug_ranges  0x00003238       0x50 accloud.a(zc_sec_engine.o)
 .debug_ranges  0x00003288       0x38 accloud.a(zc_timer.o)
 .debug_ranges  0x000032c0       0xb8 accloud.a(zc_hf_adpter.o)
 .debug_ranges  0x00003378       0x68 accloud.a(ac_api.o)
 .debug_ranges  0x000033e0       0x60 accloud.a(ac_hal.o)
 .debug_ranges  0x00003440       0x20 accloud.a(aes_cbc.o)
 .debug_ranges  0x00003460       0x28 accloud.a(aes_core.o)
 .debug_ranges  0x00003488       0x28 accloud.a(crc.o)
 .debug_ranges  0x000034b0      0x150 accloud.a(bignum.o)
 .debug_ranges  0x00003600       0x38 accloud.a(rsa.o)
 .debug_ranges  0x00003638       0x70 accloud.a(zc_client_manag)
 .debug_ranges  0x000036a8       0x38 accloud.a(zc_cloud_event.)
 .debug_ranges  0x000036e0       0x30 accloud.a(zc_moudle_manag)

.debug_loc      0x00000000    0x245cf
 .debug_loc     0x00000000      0x6b7 ssv6060-main.o
 .debug_loc     0x000006b7      0x404 icomlib.a(etimer.o)
 .debug_loc     0x00000abb      0xa02 icomlib.a(printf.o)
 .debug_loc     0x000014bd      0x3c8 icomlib.a(process.o)
 .debug_loc     0x00001885      0xbc0 icomlib.a(strformat.o)
 .debug_loc     0x00002445       0xc3 icomlib.a(timer.o)
 .debug_loc     0x00002508      0xd1b icomlib.a(atcmd_icomm.o)
 .debug_loc     0x00003223      0xd4d icomlib.a(boot-hiflying.o)
 .debug_loc     0x00003f70       0x49 icomlib.a(clock.o)
 .debug_loc     0x00003fb9       0x84 icomlib.a(contiki-main.o)
 .debug_loc     0x0000403d      0x14d icomlib.a(debug-uart.o)
 .debug_loc     0x0000418a      0x27c icomlib.a(gpio_api.o)
 .debug_loc     0x00004406      0x218 icomlib.a(drv_timer.o)
 .debug_loc     0x0000461e      0x20a icomlib.a(drv_uart.o)
 .debug_loc     0x00004828      0x4ed icomlib.a(hw_init.o)
 .debug_loc     0x00004d15       0xef icomlib.a(hw_regs_api.o)
 .debug_loc     0x00004e04      0x6c3 icomlib.a(ssv_lib.o)
 .debug_loc     0x000054c7      0x1ab icomlib.a(ssv_lib_slow.o)
 .debug_loc     0x00005672      0x24f icomlib.a(swpwm.o)
 .debug_loc     0x000058c1      0x564 icomlib.a(systemconf.o)
 .debug_loc     0x00005e25      0x194 icomlib.a(wdog_api.o)
 .debug_loc     0x00005fb9      0x3d5 icomlib.a(xmem.o)
 .debug_loc     0x0000638e       0xce icomlib.a(bsp.o)
 .debug_loc     0x0000645c      0x5ad icomlib.a(crypthw.o)
 .debug_loc     0x00006a09     0x20d2 icomlib.a(dbg-atcmd-api.o)
 .debug_loc     0x00008adb      0x3e2 icomlib.a(drv_mac.o)
 .debug_loc     0x00008ebd     0x1c9d icomlib.a(drv_phy.o)
 .debug_loc     0x0000ab5a      0x283 icomlib.a(drv_pktbuf.o)
 .debug_loc     0x0000addd      0x4d4 icomlib.a(hash_alg.o)
 .debug_loc     0x0000b2b1       0xf1 icomlib.a(hmac_md5.o)
 .debug_loc     0x0000b3a2      0x15a icomlib.a(hmac_sha1.o)
 .debug_loc     0x0000b4fc      0xfbb icomlib.a(ieee80211_mgmt.)
 .debug_loc     0x0000c4b7       0xc6 icomlib.a(ieee80211_rdc.o)
 .debug_loc     0x0000c57d      0x3dd icomlib.a(irq.o)
 .debug_loc     0x0000c95a      0x17a icomlib.a(powersave.o)
 .debug_loc     0x0000cad4       0x93 icomlib.a(rate_control.o)
 .debug_loc     0x0000cb67       0xbd icomlib.a(sha1.o)
 .debug_loc     0x0000cc24     0x184c icomlib.a(soft_ap.o)
 .debug_loc     0x0000e470      0x4de icomlib.a(ssv6200_rx.o)
 .debug_loc     0x0000e94e      0x1e6 icomlib.a(ssvradio.o)
 .debug_loc     0x0000eb34     0x1221 icomlib.a(wpa.o)
 .debug_loc     0x0000fd55      0x19a icomlib.a(sys_status_api.)
 .debug_loc     0x0000feef     0x1222 icomlib.a(AES_decrypt.o)
 .debug_loc     0x00011111      0x24a icomlib.a(arc4.o)
 .debug_loc     0x0001135b      0xc55 icomlib.a(md5.o)
 .debug_loc     0x00011fb0      0x4ac icomlib.a(wep.o)
 .debug_loc     0x0001245c       0x6a icomlib.a(autostart.o)
 .debug_loc     0x000124c6      0x13d icomlib.a(shell-ping.o)
 .debug_loc     0x00012603       0x21 icomlib.a(random.o)
 .debug_loc     0x00012624      0x246 icomlib.a(airkiss.o)
 .debug_loc     0x0001286a      0x257 icomlib.a(bsp_info.o)
 .debug_loc     0x00012ac1      0xd53 icomlib.a(cfs-coffee.o)
 .debug_loc     0x00013814       0x63 icomlib.a(console.o)
 .debug_loc     0x00013877      0x242 icomlib.a(drv_flash.o)
 .debug_loc     0x00013ab9      0x2ab icomlib.a(drv_gpio.o)
 .debug_loc     0x00013d64      0x124 icomlib.a(drv_pmu.o)
 .debug_loc     0x00013e88       0x21 icomlib.a(fence.o)
 .debug_loc     0x00013ea9      0x4fd icomlib.a(flash_api.o)
 .debug_loc     0x000143a6      0x2d8 icomlib.a(smartComm.o)
 .debug_loc     0x0001467e      0x7d9 icomlib.a(smartConf.o)
 .debug_loc     0x00014e57      0x324 icomlib.a(userSmart.o)
 .debug_loc     0x0001517b      0x32f icomlib.a(ieee80211_mac.o)
 .debug_loc     0x000154aa      0x119 icomlib.a(ieee80211_net.o)
 .debug_loc     0x000155c3      0x252 icomlib.a(ssv6200_tx.o)
 .debug_loc     0x00015815       0x58 icomlib.a(drv_fence.o)
 .debug_loc     0x0001586d       0x42 icomlib.a(drv_mbox.o)
 .debug_loc     0x000158af      0x1b4 icomlib.a(EAPOL.o)
 .debug_loc     0x00015a63     0x1bb1 icomapps.a(atcmd.o)
 .debug_loc     0x00017614      0xb42 icomapps.a(socket_app.o)
 .debug_loc     0x00018156      0x21a icomapps.a(soft_ap_init.o)
 .debug_loc     0x00018370      0x5d5 icomapps.a(tcp_server_demo)
 .debug_loc     0x00018945      0x40b icomapps.a(wifi_uart_demo.)
 .debug_loc     0x00018d50      0x682 icomapps.a(ota_api.o)
 .debug_loc     0x000193d2       0x34 icomlib.a(pwm_api.o)
 .debug_loc     0x00019406       0x78 icomlib.a(serial_api.o)
 .debug_loc     0x0001947e       0x2e icomlib.a(drv_pwm.o)
 .debug_loc     0x000194ac      0x114 contikilib.a(dhcp_process.o)
 .debug_loc     0x000195c0      0xda2 contikilib.a(dhcps.o)
 .debug_loc     0x0001a362      0x50e contikilib.a(resolv.o)
 .debug_loc     0x0001a870      0x340 contikilib.a(simple-udp.o)
 .debug_loc     0x0001abb0      0x76b contikilib.a(socket_driver.o)
 .debug_loc     0x0001b31b      0x750 contikilib.a(tcpip.o)
 .debug_loc     0x0001ba6b      0x4c1 contikilib.a(uip_arp.o)
 .debug_loc     0x0001bf2c      0x636 contikilib.a(uip.o)
 .debug_loc     0x0001c562      0x1a0 contikilib.a(uiplib.o)
 .debug_loc     0x0001c702       0xfc contikilib.a(uip-udp-packet.)
 .debug_loc     0x0001c7fe      0x38e contikilib.a(ntp_client.o)
 .debug_loc     0x0001cb8c      0x51a contikilib.a(dhcpc.o)
 .debug_loc     0x0001d0a6      0x1db accloud.a(zc_common.o)
 .debug_loc     0x0001d281      0x1b1 accloud.a(zc_configuratio)
 .debug_loc     0x0001d432      0x48e accloud.a(zc_message_queu)
 .debug_loc     0x0001d8c0      0xd7c accloud.a(zc_protocol_con)
 .debug_loc     0x0001e63c      0x596 accloud.a(zc_sec_engine.o)
 .debug_loc     0x0001ebd2       0xc9 accloud.a(zc_timer.o)
 .debug_loc     0x0001ec9b      0x41c accloud.a(zc_hf_adpter.o)
 .debug_loc     0x0001f0b7      0x62f accloud.a(ac_api.o)
 .debug_loc     0x0001f6e6      0x255 accloud.a(ac_hal.o)
 .debug_loc     0x0001f93b      0x4b5 accloud.a(aes_cbc.o)
 .debug_loc     0x0001fdf0      0x77b accloud.a(aes_core.o)
 .debug_loc     0x0002056b      0x250 accloud.a(crc.o)
 .debug_loc     0x000207bb     0x2cc6 accloud.a(bignum.o)
 .debug_loc     0x00023481      0x46c accloud.a(rsa.o)
 .debug_loc     0x000238ed      0x259 accloud.a(zc_client_manag)
 .debug_loc     0x00023b46      0x3fd accloud.a(zc_cloud_event.)
 .debug_loc     0x00023f43      0x68c accloud.a(zc_moudle_manag)

.debug_str      0x00000000     0xe164
 .debug_str     0x00000000      0xacf ssv6060-main.o
                                0xc75 (size before relaxing)
 .debug_str     0x00000acf      0x176 icomlib.a(etimer.o)
                                0x4ab (size before relaxing)
 .debug_str     0x00000c45      0x326 icomlib.a(printf.o)
                                0x519 (size before relaxing)
 .debug_str     0x00000f6b      0x13e icomlib.a(process.o)
                                0x44a (size before relaxing)
 .debug_str     0x000010a9       0xec icomlib.a(strformat.o)
                                0x2c3 (size before relaxing)
 .debug_str     0x00001195       0x1b icomlib.a(timer.o)
                                0x1ea (size before relaxing)
 .debug_str     0x000011b0      0xea8 icomlib.a(atcmd_icomm.o)
                               0x142d (size before relaxing)
 .debug_str     0x00002058      0x5e5 icomlib.a(boot-hiflying.o)
                                0x852 (size before relaxing)
 .debug_str     0x0000263d      0x131 icomlib.a(clock.o)
                                0xaea (size before relaxing)
 .debug_str     0x0000276e      0x1a0 icomlib.a(contiki-main.o)
                                0x8c9 (size before relaxing)
 .debug_str     0x0000290e       0x7f icomlib.a(debug-uart.o)
                                0x219 (size before relaxing)
 .debug_str     0x0000298d       0xe7 icomlib.a(gpio_api.o)
                                0x35e (size before relaxing)
 .debug_str     0x00002a74       0x3d icomlib.a(drv_timer.o)
                                0x24b (size before relaxing)
 .debug_str     0x00002ab1      0x313 icomlib.a(drv_uart.o)
                                0x53a (size before relaxing)
 .debug_str     0x00002dc4      0x61e icomlib.a(hw_init.o)
                               0x1308 (size before relaxing)
 .debug_str     0x000033e2       0x17 icomlib.a(hw_regs_api.o)
                                0x1a3 (size before relaxing)
 .debug_str     0x000033f9       0xa1 icomlib.a(ssv_lib.o)
                                0x24a (size before relaxing)
 .debug_str     0x0000349a       0x71 icomlib.a(ssv_lib_slow.o)
                                0x21c (size before relaxing)
 .debug_str     0x0000350b       0xa4 icomlib.a(swpwm.o)
                                0x343 (size before relaxing)
 .debug_str     0x000035af      0x39f icomlib.a(systemconf.o)
                                0xee1 (size before relaxing)
 .debug_str     0x0000394e      0x15e icomlib.a(wdog_api.o)
                                0x4cb (size before relaxing)
 .debug_str     0x00003aac      0x199 icomlib.a(xmem.o)
                                0x4ba (size before relaxing)
 .debug_str     0x00003c45       0xad icomlib.a(bsp.o)
                                0x571 (size before relaxing)
 .debug_str     0x00003cf2      0x24e icomlib.a(crypthw.o)
                                0x526 (size before relaxing)
 .debug_str     0x00003f40      0x983 icomlib.a(dbg-atcmd-api.o)
                               0x1882 (size before relaxing)
 .debug_str     0x000048c3      0x1af icomlib.a(drv_mac.o)
                                0x353 (size before relaxing)
 .debug_str     0x00004a72      0xd69 icomlib.a(drv_phy.o)
                               0x11b8 (size before relaxing)
 .debug_str     0x000057db      0x102 icomlib.a(drv_pktbuf.o)
                                0x374 (size before relaxing)
 .debug_str     0x000058dd       0x17 icomlib.a(drv_pktbuf_slow)
                                0x1ec (size before relaxing)
 .debug_str     0x000058f4       0xf9 icomlib.a(hash_alg.o)
                                0x2ad (size before relaxing)
 .debug_str     0x000059ed       0x3e icomlib.a(hmac_md5.o)
                                0x231 (size before relaxing)
 .debug_str     0x00005a2b       0xa6 icomlib.a(hmac_sha1.o)
                                0x299 (size before relaxing)
 .debug_str     0x00005ad1     0x1deb icomlib.a(ieee80211_mgmt.)
                               0x3195 (size before relaxing)
 .debug_str     0x000078bc       0x55 icomlib.a(ieee80211_rdc.o)
                                0x4b9 (size before relaxing)
 .debug_str     0x00007911      0x139 icomlib.a(irq.o)
                                0x313 (size before relaxing)
 .debug_str     0x00007a4a       0x2d icomlib.a(netstack.o)
                                0x22f (size before relaxing)
 .debug_str     0x00007a77      0x19b icomlib.a(powersave.o)
                               0x17d0 (size before relaxing)
 .debug_str     0x00007c12       0xae icomlib.a(rate_control.o)
                                0xb71 (size before relaxing)
 .debug_str     0x00007cc0       0x1d icomlib.a(sha1.o)
                                0x22f (size before relaxing)
 .debug_str     0x00007cdd      0x9b6 icomlib.a(soft_ap.o)
                               0x25b7 (size before relaxing)
 .debug_str     0x00008693      0x2af icomlib.a(ssv6200_rx.o)
                               0x10ea (size before relaxing)
 .debug_str     0x00008942      0x1ea icomlib.a(ssvradio.o)
                                0xe2e (size before relaxing)
 .debug_str     0x00008b2c      0x255 icomlib.a(wpa.o)
                               0x1ab3 (size before relaxing)
 .debug_str     0x00008d81       0x95 icomlib.a(sys_status_api.)
                                0xa6a (size before relaxing)
 .debug_str     0x00008e16      0x11e icomlib.a(AES_decrypt.o)
                                0x2cf (size before relaxing)
 .debug_str     0x00008f34       0x4b icomlib.a(arc4.o)
                                0x1d7 (size before relaxing)
 .debug_str     0x00008f7f       0x52 icomlib.a(md5.o)
                                0x22f (size before relaxing)
 .debug_str     0x00008fd1       0xff icomlib.a(wep.o)
                               0x1694 (size before relaxing)
 .debug_str     0x000090d0       0x1e icomlib.a(autostart.o)
                                0x2f0 (size before relaxing)
 .debug_str     0x000090ee      0x103 icomlib.a(shell-ping.o)
                                0x4e6 (size before relaxing)
 .debug_str     0x000091f1       0x1e icomlib.a(random.o)
                                0x19f (size before relaxing)
 .debug_str     0x0000920f      0x238 icomlib.a(airkiss.o)
                                0xd67 (size before relaxing)
 .debug_str     0x00009447      0x161 icomlib.a(bsp_info.o)
                                0xd55 (size before relaxing)
 .debug_str     0x000095a8      0x3af icomlib.a(cfs-coffee.o)
                                0x7d1 (size before relaxing)
 .debug_str     0x00009957       0x47 icomlib.a(console.o)
                                0x51d (size before relaxing)
 .debug_str     0x0000999e       0xf1 icomlib.a(drv_flash.o)
                                0x435 (size before relaxing)
 .debug_str     0x00009a8f       0x50 icomlib.a(drv_gpio.o)
                                0x2e9 (size before relaxing)
 .debug_str     0x00009adf       0xfb icomlib.a(drv_pmu.o)
                                0xc1c (size before relaxing)
 .debug_str     0x00009bda       0x14 icomlib.a(drv_wdog.o)
                                0x1d4 (size before relaxing)
 .debug_str     0x00009bee       0x4c icomlib.a(fence.o)
                                0x1e6 (size before relaxing)
 .debug_str     0x00009c3a       0xa1 icomlib.a(flash_api.o)
                                0x548 (size before relaxing)
 .debug_str     0x00009cdb      0x2b2 icomlib.a(smartComm.o)
                               0x1002 (size before relaxing)
 .debug_str     0x00009f8d      0x1ec icomlib.a(smartConf.o)
                                0xfeb (size before relaxing)
 .debug_str     0x0000a179      0x195 icomlib.a(userSmart.o)
                                0xd27 (size before relaxing)
 .debug_str     0x0000a30e       0x87 icomlib.a(ieee80211_mac.o)
                                0xfe2 (size before relaxing)
 .debug_str     0x0000a395       0x7c icomlib.a(ieee80211_net.o)
                                0xdac (size before relaxing)
 .debug_str     0x0000a411      0x156 icomlib.a(ssv6200_tx.o)
                                0xeb5 (size before relaxing)
 .debug_str     0x0000a567       0x22 icomlib.a(drv_fence.o)
                                0x1d8 (size before relaxing)
 .debug_str     0x0000a589       0x38 icomlib.a(drv_mbox.o)
                                0x1c0 (size before relaxing)
 .debug_str     0x0000a5c1       0x4a icomlib.a(EAPOL.o)
                                0xde3 (size before relaxing)
 .debug_str     0x0000a60b      0x5a0 icomapps.a(atcmd.o)
                               0x1e36 (size before relaxing)
 .debug_str     0x0000abab      0x2c2 icomapps.a(socket_app.o)
                                0xadd (size before relaxing)
 .debug_str     0x0000ae6d       0x9e icomapps.a(soft_ap_init.o)
                                0xc85 (size before relaxing)
 .debug_str     0x0000af0b      0x149 icomapps.a(tcp_server_demo)
                                0x91b (size before relaxing)
 .debug_str     0x0000b054       0xac icomapps.a(wifi_uart_demo.)
                                0x72e (size before relaxing)
 .debug_str     0x0000b100      0x213 icomapps.a(ota_api.o)
                                0x87e (size before relaxing)
 .debug_str     0x0000b313       0x6b icomlib.a(pwm_api.o)
                                0x1ec (size before relaxing)
 .debug_str     0x0000b37e       0x43 icomlib.a(serial_api.o)
                                0x418 (size before relaxing)
 .debug_str     0x0000b3c1       0x13 icomlib.a(drv_pwm.o)
                                0x1d3 (size before relaxing)
 .debug_str     0x0000b3d4      0x100 contikilib.a(dhcp_process.o)
                                0xc33 (size before relaxing)
 .debug_str     0x0000b4d4      0x1cf contikilib.a(dhcps.o)
                                0x891 (size before relaxing)
 .debug_str     0x0000b6a3      0x225 contikilib.a(resolv.o)
                                0x716 (size before relaxing)
 .debug_str     0x0000b8c8       0xb6 contikilib.a(simple-udp.o)
                                0x5e1 (size before relaxing)
 .debug_str     0x0000b97e      0x192 contikilib.a(socket_driver.o)
                                0x7dc (size before relaxing)
 .debug_str     0x0000bb10      0x1f4 contikilib.a(tcpip.o)
                                0xa36 (size before relaxing)
 .debug_str     0x0000bd04      0x175 contikilib.a(uip_arp.o)
                                0x6e5 (size before relaxing)
 .debug_str     0x0000be79      0x1fe contikilib.a(uip.o)
                                0x94a (size before relaxing)
 .debug_str     0x0000c077       0x1b contikilib.a(uiplib.o)
                                0x2db (size before relaxing)
 .debug_str     0x0000c092       0x43 contikilib.a(uip-udp-packet.)
                                0x459 (size before relaxing)
 .debug_str     0x0000c0d5      0x10d contikilib.a(ntp_client.o)
                                0x608 (size before relaxing)
 .debug_str     0x0000c1e2       0xfd contikilib.a(dhcpc.o)
                               0x1011 (size before relaxing)
 .debug_str     0x0000c2df      0x1c1 accloud.a(zc_common.o)
                                0x719 (size before relaxing)
 .debug_str     0x0000c4a0      0x1c7 accloud.a(zc_configuratio)
                                0x8bf (size before relaxing)
 .debug_str     0x0000c667      0x1fe accloud.a(zc_message_queu)
                                0x7ae (size before relaxing)
 .debug_str     0x0000c865      0x949 accloud.a(zc_protocol_con)
                               0x127e (size before relaxing)
 .debug_str     0x0000d1ae      0x220 accloud.a(zc_sec_engine.o)
                                0x96d (size before relaxing)
 .debug_str     0x0000d3ce       0x7e accloud.a(zc_timer.o)
                                0x96c (size before relaxing)
 .debug_str     0x0000d44c      0x28c accloud.a(zc_hf_adpter.o)
                                0xf6f (size before relaxing)
 .debug_str     0x0000d6d8      0x2f5 accloud.a(ac_api.o)
                                0x8cd (size before relaxing)
 .debug_str     0x0000d9cd      0x16f accloud.a(ac_hal.o)
                                0x996 (size before relaxing)
 .debug_str     0x0000db3c       0xeb accloud.a(aes_cbc.o)
                                0x2af (size before relaxing)
 .debug_str     0x0000dc27       0x23 accloud.a(aes_core.o)
                                0x21a (size before relaxing)
 .debug_str     0x0000dc4a       0x5b accloud.a(crc.o)
                                0x189 (size before relaxing)
 .debug_str     0x0000dca5      0x207 accloud.a(bignum.o)
                                0x3d4 (size before relaxing)
 .debug_str     0x0000deac       0x49 accloud.a(rsa.o)
                                0x2d9 (size before relaxing)
 .debug_str     0x0000def5      0x138 accloud.a(zc_client_manag)
                                0xbf6 (size before relaxing)
 .debug_str     0x0000e02d       0x73 accloud.a(zc_cloud_event.)
                                0xafa (size before relaxing)
 .debug_str     0x0000e0a0       0xc4 accloud.a(zc_moudle_manag)
                                0xd35 (size before relaxing)

.comment        0x00000000       0xe0
 .comment       0x00000000       0x70 ssv6060-main.o
                                 0x71 (size before relaxing)
 .comment       0x00000000       0x71 icomlib.a(etimer.o)
 .comment       0x00000000       0x71 icomlib.a(printf.o)
 .comment       0x00000000       0x71 icomlib.a(process.o)
 .comment       0x00000000       0x71 icomlib.a(strformat.o)
 .comment       0x00000000       0x71 icomlib.a(timer.o)
 .comment       0x00000000       0x71 icomlib.a(atcmd_icomm.o)
 .comment       0x00000000       0x71 icomlib.a(boot-hiflying.o)
 .comment       0x00000000       0x71 icomlib.a(clock.o)
 .comment       0x00000000       0x71 icomlib.a(contiki-main.o)
 .comment       0x00000000       0x71 icomlib.a(debug-uart.o)
 .comment       0x00000000       0x71 icomlib.a(gpio_api.o)
 .comment       0x00000000       0x71 icomlib.a(drv_timer.o)
 .comment       0x00000000       0x71 icomlib.a(drv_uart.o)
 .comment       0x00000000       0x71 icomlib.a(hw_init.o)
 .comment       0x00000000       0x71 icomlib.a(hw_regs_api.o)
 .comment       0x00000000       0x71 icomlib.a(ssv_lib.o)
 .comment       0x00000000       0x71 icomlib.a(ssv_lib_slow.o)
 .comment       0x00000000       0x71 icomlib.a(swpwm.o)
 .comment       0x00000000       0x71 icomlib.a(systemconf.o)
 .comment       0x00000000       0x71 icomlib.a(wdog_api.o)
 .comment       0x00000000       0x71 icomlib.a(xmem.o)
 .comment       0x00000000       0x71 icomlib.a(bsp.o)
 .comment       0x00000000       0x71 icomlib.a(crypthw.o)
 .comment       0x00000000       0x71 icomlib.a(dbg-atcmd-api.o)
 .comment       0x00000000       0x71 icomlib.a(drv_mac.o)
 .comment       0x00000000       0x71 icomlib.a(drv_phy.o)
 .comment       0x00000000       0x71 icomlib.a(drv_pktbuf.o)
 .comment       0x00000000       0x71 icomlib.a(drv_pktbuf_slow)
 .comment       0x00000000       0x71 icomlib.a(hash_alg.o)
 .comment       0x00000000       0x71 icomlib.a(hmac_md5.o)
 .comment       0x00000000       0x71 icomlib.a(hmac_sha1.o)
 .comment       0x00000000       0x71 icomlib.a(ieee80211_mgmt.)
 .comment       0x00000000       0x71 icomlib.a(ieee80211_rdc.o)
 .comment       0x00000000       0x71 icomlib.a(irq.o)
 .comment       0x00000000       0x71 icomlib.a(netstack.o)
 .comment       0x00000000       0x71 icomlib.a(powersave.o)
 .comment       0x00000000       0x71 icomlib.a(rate_control.o)
 .comment       0x00000000       0x71 icomlib.a(sha1.o)
 .comment       0x00000000       0x71 icomlib.a(soft_ap.o)
 .comment       0x00000000       0x71 icomlib.a(ssv6200_rx.o)
 .comment       0x00000000       0x71 icomlib.a(ssvradio.o)
 .comment       0x00000000       0x71 icomlib.a(wpa.o)
 .comment       0x00000000       0x71 icomlib.a(sys_status_api.)
 .comment       0x00000000       0x71 icomlib.a(AES_decrypt.o)
 .comment       0x00000000       0x71 icomlib.a(arc4.o)
 .comment       0x00000000       0x71 icomlib.a(md5.o)
 .comment       0x00000000       0x71 icomlib.a(wep.o)
 .comment       0x00000000       0x71 icomlib.a(autostart.o)
 .comment       0x00000000       0x71 icomlib.a(shell-ping.o)
 .comment       0x00000000       0x71 icomlib.a(random.o)
 .comment       0x00000000       0x71 icomlib.a(airkiss.o)
 .comment       0x00000000       0x71 icomlib.a(bsp_info.o)
 .comment       0x00000000       0x71 icomlib.a(cfs-coffee.o)
 .comment       0x00000000       0x71 icomlib.a(console.o)
 .comment       0x00000000       0x71 icomlib.a(drv_flash.o)
 .comment       0x00000000       0x71 icomlib.a(drv_gpio.o)
 .comment       0x00000000       0x71 icomlib.a(drv_pmu.o)
 .comment       0x00000000       0x71 icomlib.a(drv_wdog.o)
 .comment       0x00000000       0x71 icomlib.a(fence.o)
 .comment       0x00000000       0x71 icomlib.a(flash_api.o)
 .comment       0x00000000       0x71 icomlib.a(smartComm.o)
 .comment       0x00000000       0x71 icomlib.a(smartConf.o)
 .comment       0x00000000       0x71 icomlib.a(userSmart.o)
 .comment       0x00000000       0x71 icomlib.a(ieee80211_mac.o)
 .comment       0x00000000       0x71 icomlib.a(ieee80211_net.o)
 .comment       0x00000000       0x71 icomlib.a(ssv6200_tx.o)
 .comment       0x00000000       0x71 icomlib.a(drv_fence.o)
 .comment       0x00000000       0x71 icomlib.a(drv_mbox.o)
 .comment       0x00000000       0x71 icomlib.a(EAPOL.o)
 .comment       0x00000000       0x71 icomapps.a(atcmd.o)
 .comment       0x00000000       0x71 icomapps.a(socket_app.o)
 .comment       0x00000000       0x71 icomapps.a(soft_ap_init.o)
 .comment       0x00000000       0x71 icomapps.a(tcp_server_demo)
 .comment       0x00000000       0x71 icomapps.a(wifi_uart_demo.)
 .comment       0x00000000       0x71 icomapps.a(ota_api.o)
 .comment       0x00000000       0x71 icomlib.a(pwm_api.o)
 .comment       0x00000000       0x71 icomlib.a(serial_api.o)
 .comment       0x00000000       0x71 icomlib.a(drv_pwm.o)
 .comment       0x00000000       0x71 contikilib.a(dhcp_process.o)
 .comment       0x00000000       0x71 contikilib.a(dhcps.o)
 .comment       0x00000000       0x71 contikilib.a(resolv.o)
 .comment       0x00000000       0x71 contikilib.a(simple-udp.o)
 .comment       0x00000000       0x71 contikilib.a(socket_driver.o)
 .comment       0x00000000       0x71 contikilib.a(tcpip.o)
 .comment       0x00000000       0x71 contikilib.a(uip_arp.o)
 .comment       0x00000000       0x71 contikilib.a(uip.o)
 .comment       0x00000000       0x71 contikilib.a(uiplib.o)
 .comment       0x00000000       0x71 contikilib.a(uip-udp-packet.)
 .comment       0x00000000       0x71 contikilib.a(ntp_client.o)
 .comment       0x00000000       0x71 contikilib.a(dhcpc.o)
 .comment       0x00000000       0x71 accloud.a(zc_common.o)
 .comment       0x00000000       0x71 accloud.a(zc_configuratio)
 .comment       0x00000000       0x71 accloud.a(zc_message_queu)
 .comment       0x00000000       0x71 accloud.a(zc_protocol_con)
 .comment       0x00000000       0x71 accloud.a(zc_sec_engine.o)
 .comment       0x00000000       0x71 accloud.a(zc_timer.o)
 .comment       0x00000000       0x71 accloud.a(zc_hf_adpter.o)
 .comment       0x00000000       0x71 accloud.a(ac_api.o)
 .comment       0x00000000       0x71 accloud.a(ac_hal.o)
 .comment       0x00000000       0x71 accloud.a(aes_cbc.o)
 .comment       0x00000000       0x71 accloud.a(aes_core.o)
 .comment       0x00000000       0x71 accloud.a(crc.o)
 .comment       0x00000000       0x71 accloud.a(bignum.o)
 .comment       0x00000000       0x71 accloud.a(rsa.o)
 .comment       0x00000000       0x71 accloud.a(zc_client_manag)
 .comment       0x00000000       0x71 accloud.a(zc_cloud_event.)
 .comment       0x00000000       0x71 accloud.a(zc_moudle_manag)
 .comment       0x00000070       0x70 ./thirdPartyLib/libairkiss.a(airkiss.o)
                                 0x71 (size before relaxing)

.debug_frame    0x00000000     0x8890
 .debug_frame   0x00000000      0x16c ssv6060-main.o
 .debug_frame   0x0000016c      0x160 icomlib.a(etimer.o)
 .debug_frame   0x000002cc      0x1c0 icomlib.a(printf.o)
 .debug_frame   0x0000048c      0x188 icomlib.a(process.o)
 .debug_frame   0x00000614       0x78 icomlib.a(strformat.o)
 .debug_frame   0x0000068c       0x90 icomlib.a(timer.o)
 .debug_frame   0x0000071c      0x430 icomlib.a(atcmd_icomm.o)
 .debug_frame   0x00000b4c      0x240 icomlib.a(boot-hiflying.o)
 .debug_frame   0x00000d8c       0xac icomlib.a(clock.o)
 .debug_frame   0x00000e38       0xa8 icomlib.a(contiki-main.o)
 .debug_frame   0x00000ee0       0x64 icomlib.a(debug-uart.o)
 .debug_frame   0x00000f44       0x70 icomlib.a(gpio_api.o)
 .debug_frame   0x00000fb4       0x40 icomlib.a(drv_timer.o)
 .debug_frame   0x00000ff4      0x138 icomlib.a(drv_uart.o)
 .debug_frame   0x0000112c      0x108 icomlib.a(hw_init.o)
 .debug_frame   0x00001234       0x40 icomlib.a(hw_regs_api.o)
 .debug_frame   0x00001274       0xe0 icomlib.a(ssv_lib.o)
 .debug_frame   0x00001354       0xb4 icomlib.a(ssv_lib_slow.o)
 .debug_frame   0x00001408       0xb8 icomlib.a(swpwm.o)
 .debug_frame   0x000014c0      0x180 icomlib.a(systemconf.o)
 .debug_frame   0x00001640       0x94 icomlib.a(wdog_api.o)
 .debug_frame   0x000016d4       0xe4 icomlib.a(xmem.o)
 .debug_frame   0x000017b8       0x98 icomlib.a(bsp.o)
 .debug_frame   0x00001850       0xe0 icomlib.a(crypthw.o)
 .debug_frame   0x00001930      0x4dc icomlib.a(dbg-atcmd-api.o)
 .debug_frame   0x00001e0c      0x358 icomlib.a(drv_mac.o)
 .debug_frame   0x00002164      0x688 icomlib.a(drv_phy.o)
 .debug_frame   0x000027ec      0x10c icomlib.a(drv_pktbuf.o)
 .debug_frame   0x000028f8       0x30 icomlib.a(drv_pktbuf_slow)
 .debug_frame   0x00002928       0xd0 icomlib.a(hash_alg.o)
 .debug_frame   0x000029f8       0x54 icomlib.a(hmac_md5.o)
 .debug_frame   0x00002a4c       0x58 icomlib.a(hmac_sha1.o)
 .debug_frame   0x00002aa4      0x4ec icomlib.a(ieee80211_mgmt.)
 .debug_frame   0x00002f90       0xa0 icomlib.a(ieee80211_rdc.o)
 .debug_frame   0x00003030       0xe8 icomlib.a(irq.o)
 .debug_frame   0x00003118       0x28 icomlib.a(netstack.o)
 .debug_frame   0x00003140      0x114 icomlib.a(powersave.o)
 .debug_frame   0x00003254       0x84 icomlib.a(rate_control.o)
 .debug_frame   0x000032d8       0x6c icomlib.a(sha1.o)
 .debug_frame   0x00003344      0x580 icomlib.a(soft_ap.o)
 .debug_frame   0x000038c4      0x19c icomlib.a(ssv6200_rx.o)
 .debug_frame   0x00003a60      0x10c icomlib.a(ssvradio.o)
 .debug_frame   0x00003b6c      0x310 icomlib.a(wpa.o)
 .debug_frame   0x00003e7c       0x90 icomlib.a(sys_status_api.)
 .debug_frame   0x00003f0c      0x154 icomlib.a(AES_decrypt.o)
 .debug_frame   0x00004060       0x78 icomlib.a(arc4.o)
 .debug_frame   0x000040d8       0x98 icomlib.a(md5.o)
 .debug_frame   0x00004170      0x1a8 icomlib.a(wep.o)
 .debug_frame   0x00004318       0x40 icomlib.a(autostart.o)
 .debug_frame   0x00004358       0x44 icomlib.a(shell-ping.o)
 .debug_frame   0x0000439c       0x38 icomlib.a(random.o)
 .debug_frame   0x000043d4      0x110 icomlib.a(airkiss.o)
 .debug_frame   0x000044e4       0xa8 icomlib.a(bsp_info.o)
 .debug_frame   0x0000458c      0x28c icomlib.a(cfs-coffee.o)
 .debug_frame   0x00004818       0x60 icomlib.a(console.o)
 .debug_frame   0x00004878      0x11c icomlib.a(drv_flash.o)
 .debug_frame   0x00004994       0xd4 icomlib.a(drv_gpio.o)
 .debug_frame   0x00004a68       0xe8 icomlib.a(drv_pmu.o)
 .debug_frame   0x00004b50       0x60 icomlib.a(drv_wdog.o)
 .debug_frame   0x00004bb0       0x38 icomlib.a(fence.o)
 .debug_frame   0x00004be8       0xf4 icomlib.a(flash_api.o)
 .debug_frame   0x00004cdc      0x194 icomlib.a(smartComm.o)
 .debug_frame   0x00004e70       0xc0 icomlib.a(smartConf.o)
 .debug_frame   0x00004f30      0x164 icomlib.a(userSmart.o)
 .debug_frame   0x00005094      0x16c icomlib.a(ieee80211_mac.o)
 .debug_frame   0x00005200       0x84 icomlib.a(ieee80211_net.o)
 .debug_frame   0x00005284       0x78 icomlib.a(ssv6200_tx.o)
 .debug_frame   0x000052fc       0x30 icomlib.a(drv_fence.o)
 .debug_frame   0x0000532c       0x30 icomlib.a(drv_mbox.o)
 .debug_frame   0x0000535c       0x54 icomlib.a(EAPOL.o)
 .debug_frame   0x000053b0      0x638 icomapps.a(atcmd.o)
 .debug_frame   0x000059e8      0x1a8 icomapps.a(socket_app.o)
 .debug_frame   0x00005b90       0xa0 icomapps.a(soft_ap_init.o)
 .debug_frame   0x00005c30       0xec icomapps.a(tcp_server_demo)
 .debug_frame   0x00005d1c       0x84 icomapps.a(wifi_uart_demo.)
 .debug_frame   0x00005da0      0x130 icomapps.a(ota_api.o)
 .debug_frame   0x00005ed0       0x40 icomlib.a(pwm_api.o)
 .debug_frame   0x00005f10       0x80 icomlib.a(serial_api.o)
 .debug_frame   0x00005f90       0x60 icomlib.a(drv_pwm.o)
 .debug_frame   0x00005ff0       0x94 contikilib.a(dhcp_process.o)
 .debug_frame   0x00006084      0x184 contikilib.a(dhcps.o)
 .debug_frame   0x00006208       0xc4 contikilib.a(resolv.o)
 .debug_frame   0x000062cc       0xac contikilib.a(simple-udp.o)
 .debug_frame   0x00006378      0x1bc contikilib.a(socket_driver.o)
 .debug_frame   0x00006534      0x200 contikilib.a(tcpip.o)
 .debug_frame   0x00006734      0x1a0 contikilib.a(uip_arp.o)
 .debug_frame   0x000068d4      0x260 contikilib.a(uip.o)
 .debug_frame   0x00006b34       0x34 contikilib.a(uiplib.o)
 .debug_frame   0x00006b68       0x4c contikilib.a(uip-udp-packet.)
 .debug_frame   0x00006bb4       0x74 contikilib.a(ntp_client.o)
 .debug_frame   0x00006c28      0x12c contikilib.a(dhcpc.o)
 .debug_frame   0x00006d54       0x70 accloud.a(zc_common.o)
 .debug_frame   0x00006dc4      0x110 accloud.a(zc_configuratio)
 .debug_frame   0x00006ed4       0xc0 accloud.a(zc_message_queu)
 .debug_frame   0x00006f94      0x40c accloud.a(zc_protocol_con)
 .debug_frame   0x000073a0      0x124 accloud.a(zc_sec_engine.o)
 .debug_frame   0x000074c4       0x80 accloud.a(zc_timer.o)
 .debug_frame   0x00007544      0x20c accloud.a(zc_hf_adpter.o)
 .debug_frame   0x00007750      0x168 accloud.a(ac_api.o)
 .debug_frame   0x000078b8      0x100 accloud.a(ac_hal.o)
 .debug_frame   0x000079b8       0x78 accloud.a(aes_cbc.o)
 .debug_frame   0x00007a30       0xa0 accloud.a(aes_core.o)
 .debug_frame   0x00007ad0       0x6c accloud.a(crc.o)
 .debug_frame   0x00007b3c      0x484 accloud.a(bignum.o)
 .debug_frame   0x00007fc0       0xd4 accloud.a(rsa.o)
 .debug_frame   0x00008094       0xdc accloud.a(zc_client_manag)
 .debug_frame   0x00008170       0xd0 accloud.a(zc_cloud_event.)
 .debug_frame   0x00008240       0xc0 accloud.a(zc_moudle_manag)
 .debug_frame   0x00008300       0x20 /usr/bin/../lib/gcc/arm-none-eabi/4.8.4/libgcc.a(_udivsi3.o)
 .debug_frame   0x00008320       0x20 /usr/bin/../lib/gcc/arm-none-eabi/4.8.4/libgcc.a(_divsi3.o)
 .debug_frame   0x00008340       0x58 /usr/bin/../lib/gcc/arm-none-eabi/4.8.4/libgcc.a(bpabi.o)
 .debug_frame   0x00008398       0x38 /usr/bin/../lib/gcc/arm-none-eabi/4.8.4/libgcc.a(_divdi3.o)
 .debug_frame   0x000083d0       0x38 /usr/bin/../lib/gcc/arm-none-eabi/4.8.4/libgcc.a(_udivdi3.o)
 .debug_frame   0x00008408       0x40 /usr/bin/../lib/gcc/arm-none-eabi/4.8.4/../../../../arm-none-eabi/lib/libg_s.a(lib_a-atoi.o)
 .debug_frame   0x00008448       0x20 /usr/bin/../lib/gcc/arm-none-eabi/4.8.4/../../../../arm-none-eabi/lib/libg_s.a(lib_a-errno.o)
 .debug_frame   0x00008468       0x40 /usr/bin/../lib/gcc/arm-none-eabi/4.8.4/../../../../arm-none-eabi/lib/libg_s.a(lib_a-malloc.o)
 .debug_frame   0x000084a8       0x28 /usr/bin/../lib/gcc/arm-none-eabi/4.8.4/../../../../arm-none-eabi/lib/libg_s.a(lib_a-memmove.o)
 .debug_frame   0x000084d0       0x28 /usr/bin/../lib/gcc/arm-none-eabi/4.8.4/../../../../arm-none-eabi/lib/libg_s.a(lib_a-nano-freer.o)
 .debug_frame   0x000084f8       0x2c /usr/bin/../lib/gcc/arm-none-eabi/4.8.4/../../../../arm-none-eabi/lib/libg_s.a(lib_a-nano-mallocr.o)
 .debug_frame   0x00008524       0x44 /usr/bin/../lib/gcc/arm-none-eabi/4.8.4/../../../../arm-none-eabi/lib/libg_s.a(lib_a-rand.o)
 .debug_frame   0x00008568       0x2c /usr/bin/../lib/gcc/arm-none-eabi/4.8.4/../../../../arm-none-eabi/lib/libg_s.a(lib_a-sbrkr.o)
 .debug_frame   0x00008594       0x28 /usr/bin/../lib/gcc/arm-none-eabi/4.8.4/../../../../arm-none-eabi/lib/libg_s.a(lib_a-strcasecmp.o)
 .debug_frame   0x000085bc       0x20 /usr/bin/../lib/gcc/arm-none-eabi/4.8.4/../../../../arm-none-eabi/lib/libg_s.a(lib_a-strcpy.o)
 .debug_frame   0x000085dc       0x28 /usr/bin/../lib/gcc/arm-none-eabi/4.8.4/../../../../arm-none-eabi/lib/libg_s.a(lib_a-strncmp.o)
 .debug_frame   0x00008604       0x54 /usr/bin/../lib/gcc/arm-none-eabi/4.8.4/../../../../arm-none-eabi/lib/libg_s.a(lib_a-strtol.o)
 .debug_frame   0x00008658       0x54 /usr/bin/../lib/gcc/arm-none-eabi/4.8.4/../../../../arm-none-eabi/lib/libg_s.a(lib_a-strtoul.o)
 .debug_frame   0x000086ac       0x48 /usr/bin/../lib/gcc/arm-none-eabi/4.8.4/../../../../arm-none-eabi/lib/libg_s.a(lib_a-vsnprintf.o)
 .debug_frame   0x000086f4       0x48 /usr/bin/../lib/gcc/arm-none-eabi/4.8.4/../../../../arm-none-eabi/lib/libg_s.a(lib_a-reent.o)
 .debug_frame   0x0000873c       0x88 /usr/bin/../lib/gcc/arm-none-eabi/4.8.4/../../../../arm-none-eabi/lib/libg_s.a(lib_a-svfprintf.o)
 .debug_frame   0x000087c4       0x5c /usr/bin/../lib/gcc/arm-none-eabi/4.8.4/../../../../arm-none-eabi/lib/libg_s.a(lib_a-vfprintf_i.o)
 .debug_frame   0x00008820       0x20 /usr/bin/../lib/gcc/arm-none-eabi/4.8.4/../../../../arm-none-eabi/lib/libg_s.a(lib_a-memchr-stub.o)
 .debug_frame   0x00008840       0x30 /usr/bin/../lib/gcc/arm-none-eabi/4.8.4/../../../../arm-none-eabi/lib/libg_s.a(lib_a-nano-reallocr.o)
 .debug_frame   0x00008870       0x20 /usr/bin/../lib/gcc/arm-none-eabi/4.8.4/../../../../arm-none-eabi/lib/libg_s.a(lib_a-nano-msizer.o)
